{
   <insert_a_suppression_name_here>
   Memcheck:Leak
   fun:_Znam
   fun:_ZN20octave_sparse_params11instance_okEv
   fun:_ZN20octave_sparse_params11get_banddenEv
   fun:_ZN10MatrixTypeC1Ev
   fun:_ZN12octave_valueC1EPKcc
   fun:_ZN15base_properties16factory_defaultsEv
   fun:_ZN6figure10properties16factory_defaultsEv
   fun:_ZN11root_figure23init_factory_propertiesEv
   obj:/usr/lib/x86_64-linux-gnu/liboctinterp.so.1.0.1
   fun:call_init.part.0
   fun:_dl_init
   obj:/lib/x86_64-linux-gnu/ld-2.15.so
}
{
   <insert_a_suppression_name_here>
   Memcheck:Leak
   fun:_Znam
   fun:_ZN20octave_sparse_params11instance_okEv
   fun:_ZN20octave_sparse_params11get_banddenEv
   fun:_ZN10MatrixTypeC1Ev
   fun:_ZN12octave_valueC1EPKcc
   fun:_ZN15base_properties16factory_defaultsEv
   fun:_ZN6figure10properties16factory_defaultsEv
   fun:_ZN11root_figure23init_factory_propertiesEv
   obj:/usr/lib/x86_64-linux-gnu/liboctinterp.so.1.0.1
   fun:call_init.part.0
   fun:_dl_init
   obj:/lib/x86_64-linux-gnu/ld-2.15.so
}
{
   <insert_a_suppression_name_here>
   Memcheck:Leak
   fun:_Znwm
   fun:_ZNSs4_Rep9_S_createEmmRKSaIcE
   fun:_ZNSs12_S_constructIPKcEEPcT_S3_RKSaIcESt20forward_iterator_tag
   fun:_ZNSsC1EPKcRKSaIcE
   fun:_ZN7log4cxx5Level6getAllEv
   fun:_ZN7log4cxx9HierarchyC1Ev
   fun:_ZN7log4cxx10LogManager19getLoggerRepositoryEv
   fun:_ZN7log4cxx10LogManager11getLoggerLSERKSs
   fun:_ZN7log4cxx10LogManager9getLoggerERKSs
   fun:_ZN7log4cxx6Logger9getLoggerEPKc
   fun:_ZN4hoot3Log5_initEv
   fun:_ZN4hoot3Log11getInstanceEv
}
{
   <insert_a_suppression_name_here>
   Memcheck:Leak
   fun:_Znwm
   fun:_ZNSs4_Rep9_S_createEmmRKSaIcE
   fun:_ZNSs4_Rep8_M_cloneERKSaIcEm
   fun:_ZNSs7reserveEm
   fun:_ZN7log4cxx7helpers10Transcoder6decodeERKSsRSs
   fun:_ZN7log4cxx7helpers12TimeZoneImpl13LocalTimeZone15getTimeZoneNameEv
   fun:_ZN7log4cxx7helpers8TimeZone10getDefaultEv
   fun:_ZN7log4cxx7helpers16SimpleDateFormatC1ERKSs
   fun:_ZN7log4cxx7pattern20DatePatternConverter13getDateFormatERKSt6vectorISsSaISsEE
   fun:_ZN7log4cxx7pattern20DatePatternConverterC1ERKSt6vectorISsSaISsEE
   fun:_ZN7log4cxx7pattern20DatePatternConverter11newInstanceERKSt6vectorISsSaISsEE
   fun:_ZN7log4cxx7pattern13PatternParser15createConverterERKSsRSsRKSt3mapISsPFNS_7helpers10ObjectPtrTINS0_16PatternConverterEEERKSt6vectorISsSaISsEEESt4lessISsESaISt4pairIS2_SG_EEERSC_
}
{
   <insert_a_suppression_name_here>
   Memcheck:Leak
   fun:_Znwm
   fun:_ZNSs4_Rep9_S_createEmmRKSaIcE
   fun:_ZNSs4_Rep8_M_cloneERKSaIcEm
   fun:_ZNSs7reserveEm
   fun:_ZN7log4cxx7helpers10Transcoder6decodeERKSsRSs
   fun:_ZN7log4cxx10LogManager9getLoggerERKSs
   fun:_ZN7log4cxx6Logger9getLoggerEPKc
   fun:_ZN4hoot3Log5_initEv
   fun:_ZN4hoot3Log11getInstanceEv
   fun:main
}
{
   <insert_a_suppression_name_here>
   Memcheck:Leak
   fun:_Znwm
   fun:_ZNSs4_Rep9_S_createEmmRKSaIcE
   fun:_ZNSs12_S_constructIPKcEEPcT_S3_RKSaIcESt20forward_iterator_tag
   fun:_ZNSsC1EPKcRKSaIcE
   fun:_ZN7log4cxx3spi10RootLoggerC1ERNS_7helpers4PoolERKNS2_10ObjectPtrTINS_5LevelEEE
   fun:_ZN7log4cxx9HierarchyC1Ev
   fun:_ZN7log4cxx10LogManager19getLoggerRepositoryEv
   fun:_ZN7log4cxx10LogManager11getLoggerLSERKSs
   fun:_ZN7log4cxx10LogManager9getLoggerERKSs
   fun:_ZN7log4cxx6Logger9getLoggerEPKc
   fun:_ZN4hoot3Log5_initEv
   fun:_ZN4hoot3Log11getInstanceEv
}
{
   <insert_a_suppression_name_here>
   Memcheck:Leak
   fun:_Znwm
   fun:_ZNSs4_Rep9_S_createEmmRKSaIcE
   fun:_ZNSs12_S_constructIPKcEEPcT_S3_RKSaIcESt20forward_iterator_tag
   fun:_ZNSsC1EPKcRKSaIcE
   fun:_ZN7log4cxx5Level7getInfoEv
   fun:_ZN4hoot14toLog4CxxLevelENS_3Log12WarningLevelE
   fun:_ZN4hoot3Log5_initEv
   fun:_ZN4hoot3Log11getInstanceEv
   fun:main
}
{
   <insert_a_suppression_name_here>
   Memcheck:Leak
   fun:_Znwm
   fun:_ZNSs4_Rep9_S_createEmmRKSaIcE
   fun:_ZNSs12_S_constructIPKcEEPcT_S3_RKSaIcESt20forward_iterator_tag
   fun:_ZNSsC1EPKcRKSaIcE
   fun:_ZN7log4cxx5Level8getDebugEv
   fun:_ZN7log4cxx9HierarchyC1Ev
   fun:_ZN7log4cxx10LogManager19getLoggerRepositoryEv
   fun:_ZN7log4cxx10LogManager11getLoggerLSERKSs
   fun:_ZN7log4cxx10LogManager9getLoggerERKSs
   fun:_ZN7log4cxx6Logger9getLoggerEPKc
   fun:_ZN4hoot3Log5_initEv
   fun:_ZN4hoot3Log11getInstanceEv
}
{
   <insert_a_suppression_name_here>
   Memcheck:Leak
   fun:_Znwm
   fun:_ZNSs4_Rep9_S_createEmmRKSaIcE
   fun:_ZNSs12_S_constructIPKcEEPcT_S3_RKSaIcESt20forward_iterator_tag
   fun:_ZNSsC1EPKcRKSaIcE
   fun:_ZN7log4cxx7pattern21LevelPatternConverterC1Ev
   fun:_ZN7log4cxx7pattern21LevelPatternConverter11newInstanceERKSt6vectorISsSaISsEE
   fun:_ZN7log4cxx7pattern13PatternParser15createConverterERKSsRSsRKSt3mapISsPFNS_7helpers10ObjectPtrTINS0_16PatternConverterEEERKSt6vectorISsSaISsEEESt4lessISsESaISt4pairIS2_SG_EEERSC_
   fun:_ZN7log4cxx7pattern13PatternParser17finalizeConverterEcRKSsiRSsRKNS_7helpers10ObjectPtrTINS0_14FormattingInfoEEERKSt3mapISsPFNS6_INS0_16PatternConverterEEERKSt6vectorISsSaISsEEESt4lessISsESaISt4pairIS2_SK_EEERSE_ISD_SaISD_EERSE_IS8_SaIS8_EE
   fun:_ZN7log4cxx7pattern13PatternParser5parseERKSsRSt6vectorINS_7helpers10ObjectPtrTINS0_16PatternConverterEEESaIS8_EERS4_INS6_INS0_14FormattingInfoEEESaISD_EERKSt3mapISsPFS8_RKS4_ISsSaISsEEESt4lessISsESaISt4pairIS2_SN_EEE
   fun:_ZN7log4cxx13PatternLayout15activateOptionsERNS_7helpers4PoolE
   fun:_ZN7log4cxx13PatternLayoutC1ERKSs
   fun:_ZN4hoot3Log5_initEv
}
{
   <insert_a_suppression_name_here>
   Memcheck:Leak
   fun:_Znwm
   fun:_ZNSs4_Rep9_S_createEmmRKSaIcE
   fun:_ZNSs12_S_constructIPKcEEPcT_S3_RKSaIcESt20forward_iterator_tag
   fun:_ZNSsC1EPKcRKSaIcE
   fun:_ZN7log4cxx7pattern21LevelPatternConverterC1Ev
   fun:_ZN7log4cxx7pattern21LevelPatternConverter11newInstanceERKSt6vectorISsSaISsEE
   fun:_ZN7log4cxx7pattern13PatternParser15createConverterERKSsRSsRKSt3mapISsPFNS_7helpers10ObjectPtrTINS0_16PatternConverterEEERKSt6vectorISsSaISsEEESt4lessISsESaISt4pairIS2_SG_EEERSC_
   fun:_ZN7log4cxx7pattern13PatternParser17finalizeConverterEcRKSsiRSsRKNS_7helpers10ObjectPtrTINS0_14FormattingInfoEEERKSt3mapISsPFNS6_INS0_16PatternConverterEEERKSt6vectorISsSaISsEEESt4lessISsESaISt4pairIS2_SK_EEERSE_ISD_SaISD_EERSE_IS8_SaIS8_EE
   fun:_ZN7log4cxx7pattern13PatternParser5parseERKSsRSt6vectorINS_7helpers10ObjectPtrTINS0_16PatternConverterEEESaIS8_EERS4_INS6_INS0_14FormattingInfoEEESaISD_EERKSt3mapISsPFS8_RKS4_ISsSaISsEEESt4lessISsESaISt4pairIS2_SN_EEE
   fun:_ZN7log4cxx13PatternLayout15activateOptionsERNS_7helpers4PoolE
   fun:_ZN7log4cxx13PatternLayoutC1ERKSs
   fun:_ZN4hoot3Log5_initEv
}
{
   <insert_a_suppression_name_here>
   Memcheck:Leak
   fun:_Znwm
   fun:_ZNSs4_Rep9_S_createEmmRKSaIcE
   fun:_ZNSs9_M_mutateEmmm
   fun:_ZNSs15_M_replace_safeEmmPKcm
   fun:_ZNK10octave_env16do_get_host_nameEv
   fun:_ZN10octave_envC1Ev
   fun:_ZN10octave_env11instance_okEv
   fun:_ZN10octave_env13get_host_nameEv
   obj:/usr/lib/x86_64-linux-gnu/liboctinterp.so.1.0.1
   fun:call_init.part.0
   fun:_dl_init
   obj:/lib/x86_64-linux-gnu/ld-2.15.so
}
{
   <insert_a_suppression_name_here>
   Memcheck:Leak
   fun:_Znwm
   fun:_ZNSs4_Rep9_S_createEmmRKSaIcE
   fun:_ZNSs9_M_mutateEmmm
   fun:_ZNSs15_M_replace_safeEmmPKcm
   fun:_ZN20octave_sparse_params9init_keysEv
   fun:_ZN20octave_sparse_params11instance_okEv
   fun:_ZN20octave_sparse_params11get_banddenEv
   fun:_ZN10MatrixTypeC1Ev
   fun:_ZN12octave_valueC1EPKcc
   fun:_ZN15base_properties16factory_defaultsEv
   fun:_ZN6figure10properties16factory_defaultsEv
   fun:_ZN11root_figure23init_factory_propertiesEv
}
{
   <insert_a_suppression_name_here>
   Memcheck:Leak
   fun:_Znwm
   fun:_ZNSs4_Rep9_S_createEmmRKSaIcE
   fun:_ZNSs9_M_mutateEmmm
   fun:_ZNSs15_M_replace_safeEmmPKcm
   fun:_ZN20octave_sparse_params9init_keysEv
   fun:_ZN20octave_sparse_params11instance_okEv
   fun:_ZN20octave_sparse_params11get_banddenEv
   fun:_ZN10MatrixTypeC1Ev
   fun:_ZN12octave_valueC1EPKcc
   fun:_ZN15base_properties16factory_defaultsEv
   fun:_ZN6figure10properties16factory_defaultsEv
   fun:_ZN11root_figure23init_factory_propertiesEv
}
{
   <insert_a_suppression_name_here>
   Memcheck:Leak
   fun:_Znwm
   fun:_ZNSs4_Rep9_S_createEmmRKSaIcE
   fun:_ZNSs9_M_mutateEmmm
   fun:_ZNSs15_M_replace_safeEmmPKcm
   fun:_ZN20octave_sparse_params9init_keysEv
   fun:_ZN20octave_sparse_params11instance_okEv
   fun:_ZN20octave_sparse_params11get_banddenEv
   fun:_ZN10MatrixTypeC1Ev
   fun:_ZN12octave_valueC1EPKcc
   fun:_ZN15base_properties16factory_defaultsEv
   fun:_ZN6figure10properties16factory_defaultsEv
   fun:_ZN11root_figure23init_factory_propertiesEv
}
{
   <insert_a_suppression_name_here>
   Memcheck:Leak
   fun:_Znwm
   fun:_ZNSs4_Rep9_S_createEmmRKSaIcE
   fun:_ZNSs9_M_mutateEmmm
   fun:_ZNSs15_M_replace_safeEmmPKcm
   fun:_ZN20octave_sparse_params9init_keysEv
   fun:_ZN20octave_sparse_params11instance_okEv
   fun:_ZN20octave_sparse_params11get_banddenEv
   fun:_ZN10MatrixTypeC1Ev
   fun:_ZN12octave_valueC1EPKcc
   fun:_ZN15base_properties16factory_defaultsEv
   fun:_ZN6figure10properties16factory_defaultsEv
   fun:_ZN11root_figure23init_factory_propertiesEv
}
{
   <insert_a_suppression_name_here>
   Memcheck:Leak
   fun:_Znwm
   fun:_ZNSs4_Rep9_S_createEmmRKSaIcE
   fun:_ZNSs9_M_mutateEmmm
   fun:_ZNSs15_M_replace_safeEmmPKcm
   fun:_ZN20octave_sparse_params9init_keysEv
   fun:_ZN20octave_sparse_params11instance_okEv
   fun:_ZN20octave_sparse_params11get_banddenEv
   fun:_ZN10MatrixTypeC1Ev
   fun:_ZN12octave_valueC1EPKcc
   fun:_ZN15base_properties16factory_defaultsEv
   fun:_ZN6figure10properties16factory_defaultsEv
   fun:_ZN11root_figure23init_factory_propertiesEv
}
{
   <insert_a_suppression_name_here>
   Memcheck:Leak
   fun:_Znwm
   fun:_ZNSs4_Rep9_S_createEmmRKSaIcE
   fun:_ZNSs9_M_mutateEmmm
   fun:_ZNSs15_M_replace_safeEmmPKcm
   fun:_ZN20octave_sparse_params9init_keysEv
   fun:_ZN20octave_sparse_params11instance_okEv
   fun:_ZN20octave_sparse_params11get_banddenEv
   fun:_ZN10MatrixTypeC1Ev
   fun:_ZN12octave_valueC1EPKcc
   fun:_ZN15base_properties16factory_defaultsEv
   fun:_ZN6figure10properties16factory_defaultsEv
   fun:_ZN11root_figure23init_factory_propertiesEv
}
{
   <insert_a_suppression_name_here>
   Memcheck:Leak
   fun:_Znwm
   fun:_ZNSs4_Rep9_S_createEmmRKSaIcE
   fun:_ZNSs9_M_mutateEmmm
   fun:_ZNSs15_M_replace_safeEmmPKcm
   fun:_ZN20octave_sparse_params9init_keysEv
   fun:_ZN20octave_sparse_params11instance_okEv
   fun:_ZN20octave_sparse_params11get_banddenEv
   fun:_ZN10MatrixTypeC1Ev
   fun:_ZN12octave_valueC1EPKcc
   fun:_ZN15base_properties16factory_defaultsEv
   fun:_ZN6figure10properties16factory_defaultsEv
   fun:_ZN11root_figure23init_factory_propertiesEv
}
{
   <insert_a_suppression_name_here>
   Memcheck:Leak
   fun:_Znwm
   fun:_ZNSs4_Rep9_S_createEmmRKSaIcE
   fun:_ZNSs9_M_mutateEmmm
   fun:_ZNSs15_M_replace_safeEmmPKcm
   fun:_ZN20octave_sparse_params9init_keysEv
   fun:_ZN20octave_sparse_params11instance_okEv
   fun:_ZN20octave_sparse_params11get_banddenEv
   fun:_ZN10MatrixTypeC1Ev
   fun:_ZN12octave_valueC1EPKcc
   fun:_ZN15base_properties16factory_defaultsEv
   fun:_ZN6figure10properties16factory_defaultsEv
   fun:_ZN11root_figure23init_factory_propertiesEv
}
{
   <insert_a_suppression_name_here>
   Memcheck:Leak
   fun:_Znwm
   fun:_ZNSs4_Rep9_S_createEmmRKSaIcE
   fun:_ZNSs9_M_mutateEmmm
   fun:_ZNSs15_M_replace_safeEmmPKcm
   fun:_ZN20octave_sparse_params9init_keysEv
   fun:_ZN20octave_sparse_params11instance_okEv
   fun:_ZN20octave_sparse_params11get_banddenEv
   fun:_ZN10MatrixTypeC1Ev
   fun:_ZN12octave_valueC1EPKcc
   fun:_ZN15base_properties16factory_defaultsEv
   fun:_ZN6figure10properties16factory_defaultsEv
   fun:_ZN11root_figure23init_factory_propertiesEv
}
{
   <insert_a_suppression_name_here>
   Memcheck:Leak
   fun:_Znwm
   fun:_ZNSs4_Rep9_S_createEmmRKSaIcE
   fun:_ZNSs9_M_mutateEmmm
   fun:_ZNSs15_M_replace_safeEmmPKcm
   fun:_ZN20octave_sparse_params9init_keysEv
   fun:_ZN20octave_sparse_params11instance_okEv
   fun:_ZN20octave_sparse_params11get_banddenEv
   fun:_ZN10MatrixTypeC1Ev
   fun:_ZN12octave_valueC1EPKcc
   fun:_ZN15base_properties16factory_defaultsEv
   fun:_ZN6figure10properties16factory_defaultsEv
   fun:_ZN11root_figure23init_factory_propertiesEv
}
{
   <insert_a_suppression_name_here>
   Memcheck:Leak
   fun:_Znwm
   fun:_ZNSs4_Rep9_S_createEmmRKSaIcE
   fun:_ZNSs9_M_mutateEmmm
   fun:_ZNSs15_M_replace_safeEmmPKcm
   fun:_ZN20octave_sparse_params9init_keysEv
   fun:_ZN20octave_sparse_params11instance_okEv
   fun:_ZN20octave_sparse_params11get_banddenEv
   fun:_ZN10MatrixTypeC1Ev
   fun:_ZN12octave_valueC1EPKcc
   fun:_ZN15base_properties16factory_defaultsEv
   fun:_ZN6figure10properties16factory_defaultsEv
   fun:_ZN11root_figure23init_factory_propertiesEv
}
{
   <insert_a_suppression_name_here>
   Memcheck:Leak
   fun:_Znwm
   fun:_ZNSs4_Rep9_S_createEmmRKSaIcE
   fun:_ZNSs9_M_mutateEmmm
   fun:_ZNSs15_M_replace_safeEmmPKcm
   fun:_ZN20octave_sparse_params9init_keysEv
   fun:_ZN20octave_sparse_params11instance_okEv
   fun:_ZN20octave_sparse_params11get_banddenEv
   fun:_ZN10MatrixTypeC1Ev
   fun:_ZN12octave_valueC1EPKcc
   fun:_ZN15base_properties16factory_defaultsEv
   fun:_ZN6figure10properties16factory_defaultsEv
   fun:_ZN11root_figure23init_factory_propertiesEv
}
{
   <insert_a_suppression_name_here>
   Memcheck:Leak
   fun:_Znwm
   fun:_ZNSs4_Rep9_S_createEmmRKSaIcE
   fun:_ZNSs9_M_mutateEmmm
   fun:_ZNSs15_M_replace_safeEmmPKcm
   fun:_ZN20octave_sparse_params9init_keysEv
   fun:_ZN20octave_sparse_params11instance_okEv
   fun:_ZN20octave_sparse_params11get_banddenEv
   fun:_ZN10MatrixTypeC1Ev
   fun:_ZN12octave_valueC1EPKcc
   fun:_ZN15base_properties16factory_defaultsEv
   fun:_ZN6figure10properties16factory_defaultsEv
   fun:_ZN11root_figure23init_factory_propertiesEv
}
{
   <insert_a_suppression_name_here>
   Memcheck:Leak
   fun:_Znwm
   fun:_ZNSs4_Rep9_S_createEmmRKSaIcE
   fun:_ZNSs12_S_constructIPKcEEPcT_S3_RKSaIcESt20forward_iterator_tag
   fun:_ZNSsC1EPKcRKSaIcE
   fun:_ZN7log4cxx7pattern23LiteralPatternConverterC1ERKSs
   fun:_ZN7log4cxx7pattern23LiteralPatternConverter11newInstanceERKSs
   fun:_ZN7log4cxx7pattern13PatternParser5parseERKSsRSt6vectorINS_7helpers10ObjectPtrTINS0_16PatternConverterEEESaIS8_EERS4_INS6_INS0_14FormattingInfoEEESaISD_EERKSt3mapISsPFS8_RKS4_ISsSaISsEEESt4lessISsESaISt4pairIS2_SN_EEE
   fun:_ZN7log4cxx13PatternLayout15activateOptionsERNS_7helpers4PoolE
   fun:_ZN7log4cxx13PatternLayoutC1ERKSs
   fun:_ZN4hoot3Log5_initEv
   fun:_ZN4hoot3Log11getInstanceEv
   fun:main
}
{
   <insert_a_suppression_name_here>
   Memcheck:Leak
   fun:_Znwm
   fun:_ZNSs4_Rep9_S_createEmmRKSaIcE
   fun:_ZNSs12_S_constructIPKcEEPcT_S3_RKSaIcESt20forward_iterator_tag
   fun:_ZNSsC1EPKcRKSaIcE
   fun:_ZN7log4cxx7pattern23LiteralPatternConverterC1ERKSs
   fun:_ZN7log4cxx7pattern23LiteralPatternConverter11newInstanceERKSs
   fun:_ZN7log4cxx7pattern13PatternParser5parseERKSsRSt6vectorINS_7helpers10ObjectPtrTINS0_16PatternConverterEEESaIS8_EERS4_INS6_INS0_14FormattingInfoEEESaISD_EERKSt3mapISsPFS8_RKS4_ISsSaISsEEESt4lessISsESaISt4pairIS2_SN_EEE
   fun:_ZN7log4cxx13PatternLayout15activateOptionsERNS_7helpers4PoolE
   fun:_ZN7log4cxx13PatternLayoutC1ERKSs
   fun:_ZN4hoot3Log5_initEv
   fun:_ZN4hoot3Log11getInstanceEv
   fun:main
}
{
   <insert_a_suppression_name_here>
   Memcheck:Leak
   fun:_Znwm
   fun:_ZNSs4_Rep9_S_createEmmRKSaIcE
   fun:_ZNSs12_S_constructIPKcEEPcT_S3_RKSaIcESt20forward_iterator_tag
   fun:_ZNSsC1EPKcRKSaIcE
   fun:_ZN7log4cxx7pattern23LiteralPatternConverterC1ERKSs
   fun:_ZN7log4cxx7pattern23LiteralPatternConverter11newInstanceERKSs
   fun:_ZN7log4cxx7pattern13PatternParser5parseERKSsRSt6vectorINS_7helpers10ObjectPtrTINS0_16PatternConverterEEESaIS8_EERS4_INS6_INS0_14FormattingInfoEEESaISD_EERKSt3mapISsPFS8_RKS4_ISsSaISsEEESt4lessISsESaISt4pairIS2_SN_EEE
   fun:_ZN7log4cxx13PatternLayout15activateOptionsERNS_7helpers4PoolE
   fun:_ZN7log4cxx13PatternLayoutC1ERKSs
   fun:_ZN4hoot3Log5_initEv
   fun:_ZN4hoot3Log11getInstanceEv
   fun:main
}
{
   <insert_a_suppression_name_here>
   Memcheck:Leak
   fun:_Znwm
   fun:_ZNSs4_Rep9_S_createEmmRKSaIcE
   fun:_ZNSs12_S_constructIPKcEEPcT_S3_RKSaIcESt20forward_iterator_tag
   fun:_ZNSsC1EPKcRKSaIcE
   fun:_ZN7log4cxx7pattern23LiteralPatternConverterC1ERKSs
   fun:_ZN7log4cxx7pattern23LiteralPatternConverter11newInstanceERKSs
   fun:_ZN7log4cxx7pattern13PatternParser5parseERKSsRSt6vectorINS_7helpers10ObjectPtrTINS0_16PatternConverterEEESaIS8_EERS4_INS6_INS0_14FormattingInfoEEESaISD_EERKSt3mapISsPFS8_RKS4_ISsSaISsEEESt4lessISsESaISt4pairIS2_SN_EEE
   fun:_ZN7log4cxx13PatternLayout15activateOptionsERNS_7helpers4PoolE
   fun:_ZN7log4cxx13PatternLayoutC1ERKSs
   fun:_ZN4hoot3Log5_initEv
   fun:_ZN4hoot3Log11getInstanceEv
   fun:main
}
{
   <insert_a_suppression_name_here>
   Memcheck:Leak
   fun:_Znwm
   fun:_ZNSs4_Rep9_S_createEmmRKSaIcE
   fun:_ZNSs12_S_constructIPKcEEPcT_S3_RKSaIcESt20forward_iterator_tag
   fun:_ZNSsC1EPKcRKSaIcE
   fun:_ZN7log4cxx7pattern23MessagePatternConverterC1Ev
   fun:_ZN7log4cxx7pattern23MessagePatternConverter11newInstanceERKSt6vectorISsSaISsEE
   fun:_ZN7log4cxx7pattern13PatternParser15createConverterERKSsRSsRKSt3mapISsPFNS_7helpers10ObjectPtrTINS0_16PatternConverterEEERKSt6vectorISsSaISsEEESt4lessISsESaISt4pairIS2_SG_EEERSC_
   fun:_ZN7log4cxx7pattern13PatternParser17finalizeConverterEcRKSsiRSsRKNS_7helpers10ObjectPtrTINS0_14FormattingInfoEEERKSt3mapISsPFNS6_INS0_16PatternConverterEEERKSt6vectorISsSaISsEEESt4lessISsESaISt4pairIS2_SK_EEERSE_ISD_SaISD_EERSE_IS8_SaIS8_EE
   fun:_ZN7log4cxx7pattern13PatternParser5parseERKSsRSt6vectorINS_7helpers10ObjectPtrTINS0_16PatternConverterEEESaIS8_EERS4_INS6_INS0_14FormattingInfoEEESaISD_EERKSt3mapISsPFS8_RKS4_ISsSaISsEEESt4lessISsESaISt4pairIS2_SN_EEE
   fun:_ZN7log4cxx13PatternLayout15activateOptionsERNS_7helpers4PoolE
   fun:_ZN7log4cxx13PatternLayoutC1ERKSs
   fun:_ZN4hoot3Log5_initEv
}
{
   <insert_a_suppression_name_here>
   Memcheck:Leak
   fun:_Znwm
   fun:_ZNSs4_Rep9_S_createEmmRKSaIcE
   fun:_ZNSs12_S_constructIPKcEEPcT_S3_RKSaIcESt20forward_iterator_tag
   fun:_ZNSsC1EPKcRKSaIcE
   fun:_ZN7log4cxx7pattern23MessagePatternConverterC1Ev
   fun:_ZN7log4cxx7pattern23MessagePatternConverter11newInstanceERKSt6vectorISsSaISsEE
   fun:_ZN7log4cxx7pattern13PatternParser15createConverterERKSsRSsRKSt3mapISsPFNS_7helpers10ObjectPtrTINS0_16PatternConverterEEERKSt6vectorISsSaISsEEESt4lessISsESaISt4pairIS2_SG_EEERSC_
   fun:_ZN7log4cxx7pattern13PatternParser17finalizeConverterEcRKSsiRSsRKNS_7helpers10ObjectPtrTINS0_14FormattingInfoEEERKSt3mapISsPFNS6_INS0_16PatternConverterEEERKSt6vectorISsSaISsEEESt4lessISsESaISt4pairIS2_SK_EEERSE_ISD_SaISD_EERSE_IS8_SaIS8_EE
   fun:_ZN7log4cxx7pattern13PatternParser5parseERKSsRSt6vectorINS_7helpers10ObjectPtrTINS0_16PatternConverterEEESaIS8_EERS4_INS6_INS0_14FormattingInfoEEESaISD_EERKSt3mapISsPFS8_RKS4_ISsSaISsEEESt4lessISsESaISt4pairIS2_SN_EEE
   fun:_ZN7log4cxx13PatternLayout15activateOptionsERNS_7helpers4PoolE
   fun:_ZN7log4cxx13PatternLayoutC1ERKSs
   fun:_ZN4hoot3Log5_initEv
}
{
   <insert_a_suppression_name_here>
   Memcheck:Leak
   fun:_Znwm
   fun:_ZNSs4_Rep9_S_createEmmRKSaIcE
   fun:_ZNSs12_S_constructIPKcEEPcT_S3_RKSaIcESt20forward_iterator_tag
   fun:_ZNSsC1EPKcRKSaIcE
   fun:_ZN7log4cxx7pattern29LineSeparatorPatternConverterC1Ev
   fun:_ZN7log4cxx7pattern29LineSeparatorPatternConverter11newInstanceERKSt6vectorISsSaISsEE
   fun:_ZN7log4cxx7pattern13PatternParser15createConverterERKSsRSsRKSt3mapISsPFNS_7helpers10ObjectPtrTINS0_16PatternConverterEEERKSt6vectorISsSaISsEEESt4lessISsESaISt4pairIS2_SG_EEERSC_
   fun:_ZN7log4cxx7pattern13PatternParser17finalizeConverterEcRKSsiRSsRKNS_7helpers10ObjectPtrTINS0_14FormattingInfoEEERKSt3mapISsPFNS6_INS0_16PatternConverterEEERKSt6vectorISsSaISsEEESt4lessISsESaISt4pairIS2_SK_EEERSE_ISD_SaISD_EERSE_IS8_SaIS8_EE
   fun:_ZN7log4cxx7pattern13PatternParser5parseERKSsRSt6vectorINS_7helpers10ObjectPtrTINS0_16PatternConverterEEESaIS8_EERS4_INS6_INS0_14FormattingInfoEEESaISD_EERKSt3mapISsPFS8_RKS4_ISsSaISsEEESt4lessISsESaISt4pairIS2_SN_EEE
   fun:_ZN7log4cxx13PatternLayout15activateOptionsERNS_7helpers4PoolE
   fun:_ZN7log4cxx13PatternLayoutC1ERKSs
   fun:_ZN4hoot3Log5_initEv
}
{
   <insert_a_suppression_name_here>
   Memcheck:Leak
   fun:_Znwm
   fun:_ZNSs4_Rep9_S_createEmmRKSaIcE
   fun:_ZNSs12_S_constructIPKcEEPcT_S3_RKSaIcESt20forward_iterator_tag
   fun:_ZNSsC1EPKcRKSaIcE
   fun:_ZN7log4cxx7pattern29LineSeparatorPatternConverterC1Ev
   fun:_ZN7log4cxx7pattern29LineSeparatorPatternConverter11newInstanceERKSt6vectorISsSaISsEE
   fun:_ZN7log4cxx7pattern13PatternParser15createConverterERKSsRSsRKSt3mapISsPFNS_7helpers10ObjectPtrTINS0_16PatternConverterEEERKSt6vectorISsSaISsEEESt4lessISsESaISt4pairIS2_SG_EEERSC_
   fun:_ZN7log4cxx7pattern13PatternParser17finalizeConverterEcRKSsiRSsRKNS_7helpers10ObjectPtrTINS0_14FormattingInfoEEERKSt3mapISsPFNS6_INS0_16PatternConverterEEERKSt6vectorISsSaISsEEESt4lessISsESaISt4pairIS2_SK_EEERSE_ISD_SaISD_EERSE_IS8_SaIS8_EE
   fun:_ZN7log4cxx7pattern13PatternParser5parseERKSsRSt6vectorINS_7helpers10ObjectPtrTINS0_16PatternConverterEEESaIS8_EERS4_INS6_INS0_14FormattingInfoEEESaISD_EERKSt3mapISsPFS8_RKS4_ISsSaISsEEESt4lessISsESaISt4pairIS2_SN_EEE
   fun:_ZN7log4cxx13PatternLayout15activateOptionsERNS_7helpers4PoolE
   fun:_ZN7log4cxx13PatternLayoutC1ERKSs
   fun:_ZN4hoot3Log5_initEv
}
{
   <insert_a_suppression_name_here>
   Memcheck:Leak
   fun:_Znwm
   fun:_ZNSs4_Rep9_S_createEmmRKSaIcE
   fun:_ZNSs12_S_constructIPKcEEPcT_S3_RKSaIcESt20forward_iterator_tag
   fun:_ZNSsC1EPKcRKSaIcE
   fun:_GLOBAL__sub_I_ObjectInputStreamTest.cpp
   fun:call_init.part.0
   fun:_dl_init
   obj:/lib/x86_64-linux-gnu/ld-2.15.so
   obj:*
   obj:*
   obj:*
}
{
   <insert_a_suppression_name_here>
   Memcheck:Leak
   fun:_Znwm
   fun:_ZNSs4_Rep9_S_createEmmRKSaIcE
   fun:_ZNSs12_S_constructIPKcEEPcT_S3_RKSaIcESt20forward_iterator_tag
   fun:_ZNSsC1EPKcRKSaIcE
   fun:_GLOBAL__sub_I_ObjectInputStreamTest.cpp
   fun:call_init.part.0
   fun:_dl_init
   obj:/lib/x86_64-linux-gnu/ld-2.15.so
   obj:*
   obj:*
   obj:*
}
{
   <insert_a_suppression_name_here>
   Memcheck:Leak
   fun:_Znwm
   fun:_ZNSs4_Rep9_S_createEmmRKSaIcE
   fun:_ZNSs12_S_constructIPKcEEPcT_S3_RKSaIcESt20forward_iterator_tag
   fun:_ZNSsC1EPKcRKSaIcE
   fun:_GLOBAL__sub_I_NullMapper.cpp
   fun:call_init.part.0
   fun:_dl_init
   fun:dl_open_worker
   fun:_dl_catch_error
   fun:_dl_open
   fun:dlopen_doit
   fun:_dl_catch_error
}
{
   <insert_a_suppression_name_here>
   Memcheck:Leak
   fun:_Znwm
   fun:_ZNSs4_Rep9_S_createEmmRKSaIcE
   fun:_ZNSs12_S_constructIPKcEEPcT_S3_RKSaIcESt20forward_iterator_tag
   fun:_ZNSsC1EPKcRKSaIcE
   fun:_GLOBAL__sub_I_PaintNodesMapper.cpp
   fun:call_init.part.0
   fun:_dl_init
   fun:dl_open_worker
   fun:_dl_catch_error
   fun:_dl_open
   fun:dlopen_doit
   fun:_dl_catch_error
}
{
   <insert_a_suppression_name_here>
   Memcheck:Leak
   fun:_Znwm
   fun:_ZNSs4_Rep9_S_createEmmRKSaIcE
   fun:_ZNSs12_S_constructIPKcEEPcT_S3_RKSaIcESt20forward_iterator_tag
   fun:_ZNSsC1EPKcRKSaIcE
   fun:_GLOBAL__sub_I_WayJoin1Mapper.cpp
   fun:call_init.part.0
   fun:_dl_init
   fun:dl_open_worker
   fun:_dl_catch_error
   fun:_dl_open
   fun:dlopen_doit
   fun:_dl_catch_error
}
{
   <insert_a_suppression_name_here>
   Memcheck:Leak
   fun:_Znwm
   fun:_ZNSs4_Rep9_S_createEmmRKSaIcE
   fun:_ZNSs12_S_constructIPKcEEPcT_S3_RKSaIcESt20forward_iterator_tag
   fun:_ZNSsC1EPKcRKSaIcE
   fun:_GLOBAL__sub_I_WayJoin2Mapper.cpp
   fun:call_init.part.0
   fun:_dl_init
   fun:dl_open_worker
   fun:_dl_catch_error
   fun:_dl_open
   fun:dlopen_doit
   fun:_dl_catch_error
}
{
   <insert_a_suppression_name_here>
   Memcheck:Leak
   fun:_Znwm
   fun:_ZNSs4_Rep9_S_createEmmRKSaIcE
   fun:_ZNSs12_S_constructIPKcEEPcT_S3_RKSaIcESt20forward_iterator_tag
   fun:_ZNSsC1EPKcRKSaIcE
   fun:_GLOBAL__sub_I_ConflateMapper.cpp
   fun:call_init.part.0
   fun:_dl_init
   fun:dl_open_worker
   fun:_dl_catch_error
   fun:_dl_open
   fun:dlopen_doit
   fun:_dl_catch_error
}
{
   <insert_a_suppression_name_here>
   Memcheck:Leak
   fun:_Znwm
   fun:_ZNSs4_Rep9_S_createEmmRKSaIcE
   fun:_ZNSs12_S_constructIPKcEEPcT_S3_RKSaIcESt20forward_iterator_tag
   fun:_ZNSsC1EPKcRKSaIcE
   fun:_GLOBAL__sub_I_MapStatsMapper.cpp
   fun:call_init.part.0
   fun:_dl_init
   fun:dl_open_worker
   fun:_dl_catch_error
   fun:_dl_open
   fun:dlopen_doit
   fun:_dl_catch_error
}
{
   <insert_a_suppression_name_here>
   Memcheck:Leak
   fun:_Znwm
   fun:_ZNSs4_Rep9_S_createEmmRKSaIcE
   fun:_ZNSs12_S_constructIPKcEEPcT_S3_RKSaIcESt20forward_iterator_tag
   fun:_ZNSsC1EPKcRKSaIcE
   fun:_GLOBAL__sub_I_TileOpMapper.cpp
   fun:call_init.part.0
   fun:_dl_init
   fun:dl_open_worker
   fun:_dl_catch_error
   fun:_dl_open
   fun:dlopen_doit
   fun:_dl_catch_error
}
{
   <insert_a_suppression_name_here>
   Memcheck:Leak
   fun:_Znwm
   fun:_ZNSs4_Rep9_S_createEmmRKSaIcE
   fun:_ZNSs12_S_constructIPKcEEPcT_S3_RKSaIcESt20forward_iterator_tag
   fun:_ZNSsC1EPKcRKSaIcE
   fun:_ZN7log4cxx7pattern20DatePatternConverterC1ERKSt6vectorISsSaISsEE
   fun:_ZN7log4cxx7pattern20DatePatternConverter11newInstanceERKSt6vectorISsSaISsEE
   fun:_ZN7log4cxx7pattern13PatternParser15createConverterERKSsRSsRKSt3mapISsPFNS_7helpers10ObjectPtrTINS0_16PatternConverterEEERKSt6vectorISsSaISsEEESt4lessISsESaISt4pairIS2_SG_EEERSC_
   fun:_ZN7log4cxx7pattern13PatternParser17finalizeConverterEcRKSsiRSsRKNS_7helpers10ObjectPtrTINS0_14FormattingInfoEEERKSt3mapISsPFNS6_INS0_16PatternConverterEEERKSt6vectorISsSaISsEEESt4lessISsESaISt4pairIS2_SK_EEERSE_ISD_SaISD_EERSE_IS8_SaIS8_EE
   fun:_ZN7log4cxx7pattern13PatternParser5parseERKSsRSt6vectorINS_7helpers10ObjectPtrTINS0_16PatternConverterEEESaIS8_EERS4_INS6_INS0_14FormattingInfoEEESaISD_EERKSt3mapISsPFS8_RKS4_ISsSaISsEEESt4lessISsESaISt4pairIS2_SN_EEE
   fun:_ZN7log4cxx13PatternLayout15activateOptionsERNS_7helpers4PoolE
   fun:_ZN7log4cxx13PatternLayoutC1ERKSs
   fun:_ZN4hoot3Log5_initEv
}
{
   <insert_a_suppression_name_here>
   Memcheck:Leak
   fun:_Znwm
   fun:_ZNSs4_Rep9_S_createEmmRKSaIcE
   fun:_ZNSs12_S_constructIPKcEEPcT_S3_RKSaIcESt20forward_iterator_tag
   fun:_ZNSsC1EPKcRKSaIcE
   fun:_ZN7log4cxx7pattern20DatePatternConverterC1ERKSt6vectorISsSaISsEE
   fun:_ZN7log4cxx7pattern20DatePatternConverter11newInstanceERKSt6vectorISsSaISsEE
   fun:_ZN7log4cxx7pattern13PatternParser15createConverterERKSsRSsRKSt3mapISsPFNS_7helpers10ObjectPtrTINS0_16PatternConverterEEERKSt6vectorISsSaISsEEESt4lessISsESaISt4pairIS2_SG_EEERSC_
   fun:_ZN7log4cxx7pattern13PatternParser17finalizeConverterEcRKSsiRSsRKNS_7helpers10ObjectPtrTINS0_14FormattingInfoEEERKSt3mapISsPFNS6_INS0_16PatternConverterEEERKSt6vectorISsSaISsEEESt4lessISsESaISt4pairIS2_SK_EEERSE_ISD_SaISD_EERSE_IS8_SaIS8_EE
   fun:_ZN7log4cxx7pattern13PatternParser5parseERKSsRSt6vectorINS_7helpers10ObjectPtrTINS0_16PatternConverterEEESaIS8_EERS4_INS6_INS0_14FormattingInfoEEESaISD_EERKSt3mapISsPFS8_RKS4_ISsSaISsEEESt4lessISsESaISt4pairIS2_SN_EEE
   fun:_ZN7log4cxx13PatternLayout15activateOptionsERNS_7helpers4PoolE
   fun:_ZN7log4cxx13PatternLayoutC1ERKSs
   fun:_ZN4hoot3Log5_initEv
}
{
   <insert_a_suppression_name_here>
   Memcheck:Leak
   fun:_Znwm
   fun:_ZNSs4_Rep9_S_createEmmRKSaIcE
   fun:_ZNSs12_S_constructIPKcEEPcT_S3_RKSaIcESt20forward_iterator_tag
   fun:_ZNSsC1EPKcRKSaIcE
   fun:_ZN7log4cxx15ConsoleAppender12getSystemOutEv
   fun:_ZN7log4cxx15ConsoleAppenderC1ERKNS_7helpers10ObjectPtrTINS_6LayoutEEE
   fun:_ZN4hoot3Log5_initEv
   fun:_ZN4hoot3Log11getInstanceEv
   fun:main
}
{
   <insert_a_suppression_name_here>
   Memcheck:Leak
   fun:_Znwm
   fun:_ZNSs4_Rep9_S_createEmmRKSaIcE
   fun:_ZNSs12_S_constructIPKcEEPcT_S3_RKSaIcESt20forward_iterator_tag
   fun:_ZNSsC1EPKcRKSaIcE
   fun:_GLOBAL__sub_I_NullReducer.cpp
   fun:call_init.part.0
   fun:_dl_init
   fun:dl_open_worker
   fun:_dl_catch_error
   fun:_dl_open
   fun:dlopen_doit
   fun:_dl_catch_error
}
{
   <insert_a_suppression_name_here>
   Memcheck:Leak
   fun:_Znwm
   fun:_ZNSs4_Rep9_S_createEmmRKSaIcE
   fun:_ZNSs12_S_constructIPKcEEPcT_S3_RKSaIcESt20forward_iterator_tag
   fun:_ZNSsC1EPKcRKSaIcE
   fun:_GLOBAL__sub_I_PaintNodesReducer.cpp
   fun:call_init.part.0
   fun:_dl_init
   fun:dl_open_worker
   fun:_dl_catch_error
   fun:_dl_open
   fun:dlopen_doit
   fun:_dl_catch_error
}
{
   <insert_a_suppression_name_here>
   Memcheck:Leak
   fun:_Znwm
   fun:_ZNSs4_Rep9_S_createEmmRKSaIcE
   fun:_ZNSs12_S_constructIPKcEEPcT_S3_RKSaIcESt20forward_iterator_tag
   fun:_ZNSsC1EPKcRKSaIcE
   fun:_GLOBAL__sub_I_WayJoin1Reducer.cpp
   fun:call_init.part.0
   fun:_dl_init
   fun:dl_open_worker
   fun:_dl_catch_error
   fun:_dl_open
   fun:dlopen_doit
   fun:_dl_catch_error
}
{
   <insert_a_suppression_name_here>
   Memcheck:Leak
   fun:_Znwm
   fun:_ZNSs4_Rep9_S_createEmmRKSaIcE
   fun:_ZNSs12_S_constructIPKcEEPcT_S3_RKSaIcESt20forward_iterator_tag
   fun:_ZNSsC1EPKcRKSaIcE
   fun:_GLOBAL__sub_I_WayJoin2Reducer.cpp
   fun:call_init.part.0
   fun:_dl_init
   fun:dl_open_worker
   fun:_dl_catch_error
   fun:_dl_open
   fun:dlopen_doit
   fun:_dl_catch_error
}
{
   <insert_a_suppression_name_here>
   Memcheck:Leak
   fun:_Znwm
   fun:_ZNSs4_Rep9_S_createEmmRKSaIcE
   fun:_ZNSs12_S_constructIPKcEEPcT_S3_RKSaIcESt20forward_iterator_tag
   fun:_ZNSsC1EPKcRKSaIcE
   fun:_GLOBAL__sub_I_ConflateReducer.cpp
   fun:call_init.part.0
   fun:_dl_init
   fun:dl_open_worker
   fun:_dl_catch_error
   fun:_dl_open
   fun:dlopen_doit
   fun:_dl_catch_error
}
{
   <insert_a_suppression_name_here>
   Memcheck:Leak
   fun:_Znwm
   fun:_ZNSs4_Rep9_S_createEmmRKSaIcE
   fun:_ZNSs12_S_constructIPKcEEPcT_S3_RKSaIcESt20forward_iterator_tag
   fun:_ZNSsC1EPKcRKSaIcE
   fun:_GLOBAL__sub_I_TileOpReducer.cpp
   fun:call_init.part.0
   fun:_dl_init
   fun:dl_open_worker
   fun:_dl_catch_error
   fun:_dl_open
   fun:dlopen_doit
   fun:_dl_catch_error
}
{
   <insert_a_suppression_name_here>
   Memcheck:Leak
   fun:_Znwm
   fun:_ZNSs4_Rep9_S_createEmmRKSaIcE
   fun:_ZNSs12_S_constructIPKcEEPcT_S3_RKSaIcESt20forward_iterator_tag
   fun:_ZNSsC1EPKcRKSaIcE
   fun:_GLOBAL__sub_I_OpList.cpp
   fun:call_init.part.0
   fun:_dl_init
   obj:/lib/x86_64-linux-gnu/ld-2.15.so
   obj:*
   obj:*
   obj:*
}
{
   <insert_a_suppression_name_here>
   Memcheck:Leak
   fun:_Znwm
   fun:_ZNSs4_Rep9_S_createEmmRKSaIcE
   fun:_ZNSs12_S_constructIPKcEEPcT_S3_RKSaIcESt20forward_iterator_tag
   fun:_ZNSsC1EPKcRKSaIcE
   fun:_ZN7log4cxx7pattern28FullLocationPatternConverterC1Ev
   fun:_ZN7log4cxx7pattern28FullLocationPatternConverter11newInstanceERKSt6vectorISsSaISsEE
   fun:_ZN7log4cxx7pattern13PatternParser15createConverterERKSsRSsRKSt3mapISsPFNS_7helpers10ObjectPtrTINS0_16PatternConverterEEERKSt6vectorISsSaISsEEESt4lessISsESaISt4pairIS2_SG_EEERSC_
   fun:_ZN7log4cxx7pattern13PatternParser17finalizeConverterEcRKSsiRSsRKNS_7helpers10ObjectPtrTINS0_14FormattingInfoEEERKSt3mapISsPFNS6_INS0_16PatternConverterEEERKSt6vectorISsSaISsEEESt4lessISsESaISt4pairIS2_SK_EEERSE_ISD_SaISD_EERSE_IS8_SaIS8_EE
   fun:_ZN7log4cxx7pattern13PatternParser5parseERKSsRSt6vectorINS_7helpers10ObjectPtrTINS0_16PatternConverterEEESaIS8_EERS4_INS6_INS0_14FormattingInfoEEESaISD_EERKSt3mapISsPFS8_RKS4_ISsSaISsEEESt4lessISsESaISt4pairIS2_SN_EEE
   fun:_ZN7log4cxx13PatternLayout15activateOptionsERNS_7helpers4PoolE
   fun:_ZN7log4cxx13PatternLayoutC1ERKSs
   fun:_ZN4hoot3Log5_initEv
}
{
   <insert_a_suppression_name_here>
   Memcheck:Leak
   fun:_Znwm
   fun:_ZNSs4_Rep9_S_createEmmRKSaIcE
   fun:_ZNSs12_S_constructIPKcEEPcT_S3_RKSaIcESt20forward_iterator_tag
   fun:_ZNSsC1EPKcRKSaIcE
   fun:_GLOBAL__sub_I_PaintNodesCmd.cpp
   fun:call_init.part.0
   fun:_dl_init
   fun:dl_open_worker
   fun:_dl_catch_error
   fun:_dl_open
   fun:dlopen_doit
   fun:_dl_catch_error
}
{
   <insert_a_suppression_name_here>
   Memcheck:Leak
   fun:_Znwm
   fun:_ZNSs4_Rep9_S_createEmmRKSaIcE
   fun:_ZNSs12_S_constructIPKcEEPcT_S3_RKSaIcESt20forward_iterator_tag
   fun:_ZNSsC1EPKcRKSaIcE
   fun:_GLOBAL__sub_I_WayJoinCmd.cpp
   fun:call_init.part.0
   fun:_dl_init
   fun:dl_open_worker
   fun:_dl_catch_error
   fun:_dl_open
   fun:dlopen_doit
   fun:_dl_catch_error
}
{
   <insert_a_suppression_name_here>
   Memcheck:Leak
   fun:_Znwm
   fun:_ZNSs4_Rep9_S_createEmmRKSaIcE
   fun:_ZNSs12_S_constructIPKcEEPcT_S3_RKSaIcESt20forward_iterator_tag
   fun:_ZNSsC1EPKcRKSaIcE
   fun:_GLOBAL__sub_I_BigConflateCmd.cpp
   fun:call_init.part.0
   fun:_dl_init
   fun:dl_open_worker
   fun:_dl_catch_error
   fun:_dl_open
   fun:dlopen_doit
   fun:_dl_catch_error
}
{
   <insert_a_suppression_name_here>
   Memcheck:Leak
   fun:_Znwm
   fun:_ZNSs4_Rep9_S_createEmmRKSaIcE
   fun:_ZNSs12_S_constructIPKcEEPcT_S3_RKSaIcESt20forward_iterator_tag
   fun:_ZNSsC1EPKcRKSaIcE
   fun:_GLOBAL__sub_I_BigMergeNodesCmd.cpp
   fun:call_init.part.0
   fun:_dl_init
   fun:dl_open_worker
   fun:_dl_catch_error
   fun:_dl_open
   fun:dlopen_doit
   fun:_dl_catch_error
}
{
   <insert_a_suppression_name_here>
   Memcheck:Leak
   fun:_Znwm
   fun:_ZNSs4_Rep9_S_createEmmRKSaIcE
   fun:_ZNSs12_S_constructIPKcEEPcT_S3_RKSaIcESt20forward_iterator_tag
   fun:_ZNSsC1EPKcRKSaIcE
   fun:_GLOBAL__sub_I_BigCookieCutterCmd.cpp
   fun:call_init.part.0
   fun:_dl_init
   fun:dl_open_worker
   fun:_dl_catch_error
   fun:_dl_open
   fun:dlopen_doit
   fun:_dl_catch_error
}
{
   <insert_a_suppression_name_here>
   Memcheck:Leak
   fun:_Znwm
   fun:_ZNSs4_Rep9_S_createEmmRKSaIcE
   fun:_ZNSs12_S_constructIPKcEEPcT_S3_RKSaIcESt20forward_iterator_tag
   fun:_ZNSsC1EPKcRKSaIcE
   fun:_GLOBAL__sub_I_BigPertyCmd.cpp
   fun:call_init.part.0
   fun:_dl_init
   fun:dl_open_worker
   fun:_dl_catch_error
   fun:_dl_open
   fun:dlopen_doit
   fun:_dl_catch_error
}
{
   <insert_a_suppression_name_here>
   Memcheck:Leak
   fun:_Znwm
   fun:_ZNSs4_Rep9_S_createEmmRKSaIcE
   fun:_ZNSs12_S_constructIPKcEEPcT_S3_RKSaIcESt20forward_iterator_tag
   fun:_ZNSsC1EPKcRKSaIcE
   fun:_GLOBAL__sub_I_BigUnifyCmd.cpp
   fun:call_init.part.0
   fun:_dl_init
   fun:dl_open_worker
   fun:_dl_catch_error
   fun:_dl_open
   fun:dlopen_doit
   fun:_dl_catch_error
}
{
   <insert_a_suppression_name_here>
   Memcheck:Leak
   fun:_Znwm
   fun:_ZNSs4_Rep9_S_createEmmRKSaIcE
   fun:_ZNSs9_M_mutateEmmm
   fun:_ZNSs15_M_replace_safeEmmPKcm
   fun:_ZN13octave_passwdC1EPvRSs
   fun:_ZN13octave_passwd8getpwuidEjRSs
   fun:_ZN13octave_passwd8getpwuidEj
   fun:_ZNK10octave_env16do_get_user_nameEv
   fun:_ZN10octave_envC1Ev
   fun:_ZN10octave_env11instance_okEv
   fun:_ZN10octave_env13get_host_nameEv
   obj:/usr/lib/x86_64-linux-gnu/liboctinterp.so.1.0.1
}
{
   <insert_a_suppression_name_here>
   Memcheck:Leak
   fun:_Znwm
   fun:_ZNSs4_Rep9_S_createEmmRKSaIcE
   fun:_ZNSs12_S_constructIPKcEEPcT_S3_RKSaIcESt20forward_iterator_tag
   fun:_ZNSsC1EPKcRKSaIcE
   fun:_GLOBAL__sub_I_PertyOp.cpp
   fun:call_init.part.0
   fun:_dl_init
   obj:/lib/x86_64-linux-gnu/ld-2.15.so
   obj:*
   obj:*
   obj:*
}
{
   <insert_a_suppression_name_here>
   Memcheck:Leak
   fun:_Znwm
   fun:_ZNSs4_Rep9_S_createEmmRKSaIcE
   fun:_ZNSs12_S_constructIPKcEEPcT_S3_RKSaIcESt20forward_iterator_tag
   fun:_ZNSsC1EPKcRKSaIcE
   fun:_GLOBAL__sub_I_PertyCmd.cpp
   fun:call_init.part.0
   fun:_dl_init
   obj:/lib/x86_64-linux-gnu/ld-2.15.so
   obj:*
   obj:*
   obj:*
}
{
   <insert_a_suppression_name_here>
   Memcheck:Leak
   fun:_Znwm
   fun:_ZNSs4_Rep9_S_createEmmRKSaIcE
   fun:_ZNSs12_S_constructIPKcEEPcT_S3_RKSaIcESt20forward_iterator_tag
   fun:_ZNSsC1EPKcRKSaIcE
   fun:_GLOBAL__sub_I_PertyCompareCmd.cpp
   fun:call_init.part.0
   fun:_dl_init
   obj:/lib/x86_64-linux-gnu/ld-2.15.so
   obj:*
   obj:*
   obj:*
}
{
   <insert_a_suppression_name_here>
   Memcheck:Leak
   fun:_Znwm
   fun:_ZNSs4_Rep9_S_createEmmRKSaIcE
   fun:_ZNSs12_S_constructIPKcEEPcT_S3_RKSaIcESt20forward_iterator_tag
   fun:_ZNSsC1EPKcRKSaIcE
   fun:_GLOBAL__sub_I_AttributeConflateCmd.cpp
   fun:call_init.part.0
   fun:_dl_init
   obj:/lib/x86_64-linux-gnu/ld-2.15.so
   obj:*
   obj:*
   obj:*
}
{
   <insert_a_suppression_name_here>
   Memcheck:Leak
   fun:_Znwm
   fun:_ZNSs4_Rep9_S_createEmmRKSaIcE
   fun:_ZNSs12_S_constructIPKcEEPcT_S3_RKSaIcESt20forward_iterator_tag
   fun:_ZNSsC1EPKcRKSaIcE
   fun:_GLOBAL__sub_I_CleanupCmd.cpp
   fun:call_init.part.0
   fun:_dl_init
   obj:/lib/x86_64-linux-gnu/ld-2.15.so
   obj:*
   obj:*
   obj:*
}
{
   <insert_a_suppression_name_here>
   Memcheck:Leak
   fun:_Znwm
   fun:_ZNSs4_Rep9_S_createEmmRKSaIcE
   fun:_ZNSs12_S_constructIPKcEEPcT_S3_RKSaIcESt20forward_iterator_tag
   fun:_ZNSsC1EPKcRKSaIcE
   fun:_GLOBAL__sub_I_Ogr2OsmCmd.cpp
   fun:call_init.part.0
   fun:_dl_init
   obj:/lib/x86_64-linux-gnu/ld-2.15.so
   obj:*
   obj:*
   obj:*
}
{
   <insert_a_suppression_name_here>
   Memcheck:Leak
   fun:_Znwm
   fun:_ZNSs4_Rep9_S_createEmmRKSaIcE
   fun:_ZNSs12_S_constructIPKcEEPcT_S3_RKSaIcESt20forward_iterator_tag
   fun:_ZNSsC1EPKcRKSaIcE
   fun:_GLOBAL__sub_I_StatsCmd.cpp
   fun:call_init.part.0
   fun:_dl_init
   obj:/lib/x86_64-linux-gnu/ld-2.15.so
   obj:*
   obj:*
   obj:*
}
{
   <insert_a_suppression_name_here>
   Memcheck:Leak
   fun:_Znwm
   fun:_ZNSs4_Rep9_S_createEmmRKSaIcE
   fun:_ZNSs12_S_constructIPKcEEPcT_S3_RKSaIcESt20forward_iterator_tag
   fun:_ZNSsC1EPKcRKSaIcE
   fun:_GLOBAL__sub_I_AddOsmPbfHeaderCmd.cpp
   fun:call_init.part.0
   fun:_dl_init
   obj:/lib/x86_64-linux-gnu/ld-2.15.so
   obj:*
   obj:*
   obj:*
}
{
   <insert_a_suppression_name_here>
   Memcheck:Leak
   fun:_Znwm
   fun:_ZNSs4_Rep9_S_createEmmRKSaIcE
   fun:_ZNSs12_S_constructIPKcEEPcT_S3_RKSaIcESt20forward_iterator_tag
   fun:_ZNSsC1EPKcRKSaIcE
   fun:_GLOBAL__sub_I_VersionCmd.cpp
   fun:call_init.part.0
   fun:_dl_init
   obj:/lib/x86_64-linux-gnu/ld-2.15.so
   obj:*
   obj:*
   obj:*
}
{
   <insert_a_suppression_name_here>
   Memcheck:Leak
   fun:_Znwm
   fun:_ZNSs4_Rep9_S_createEmmRKSaIcE
   fun:_ZNSs12_S_constructIPKcEEPcT_S3_RKSaIcESt20forward_iterator_tag
   fun:_ZNSsC1EPKcRKSaIcE
   fun:_GLOBAL__sub_I_CookieCutterCmd.cpp
   fun:call_init.part.0
   fun:_dl_init
   obj:/lib/x86_64-linux-gnu/ld-2.15.so
   obj:*
   obj:*
   obj:*
}
{
   <insert_a_suppression_name_here>
   Memcheck:Leak
   fun:_Znwm
   fun:_ZNSs4_Rep9_S_createEmmRKSaIcE
   fun:_ZNSs12_S_constructIPKcEEPcT_S3_RKSaIcESt20forward_iterator_tag
   fun:_ZNSsC1EPKcRKSaIcE
   fun:_GLOBAL__sub_I_BigOgr2OsmCmd.cpp
   fun:call_init.part.0
   fun:_dl_init
   obj:/lib/x86_64-linux-gnu/ld-2.15.so
   obj:*
   obj:*
   obj:*
}
{
   <insert_a_suppression_name_here>
   Memcheck:Leak
   fun:_Znwm
   fun:_ZNSs4_Rep9_S_createEmmRKSaIcE
   fun:_ZNSs12_S_constructIPKcEEPcT_S3_RKSaIcESt20forward_iterator_tag
   fun:_ZNSsC1EPKcRKSaIcE
   fun:_GLOBAL__sub_I_UnionPolygonsCmd.cpp
   fun:call_init.part.0
   fun:_dl_init
   obj:/lib/x86_64-linux-gnu/ld-2.15.so
   obj:*
   obj:*
   obj:*
}
{
   <insert_a_suppression_name_here>
   Memcheck:Leak
   fun:_Znwm
   fun:_ZNSs4_Rep9_S_createEmmRKSaIcE
   fun:_ZNSs12_S_constructIPKcEEPcT_S3_RKSaIcESt20forward_iterator_tag
   fun:_ZNSsC1EPKcRKSaIcE
   fun:_GLOBAL__sub_I_AlphaShapeCmd.cpp
   fun:call_init.part.0
   fun:_dl_init
   obj:/lib/x86_64-linux-gnu/ld-2.15.so
   obj:*
   obj:*
   obj:*
}
{
   <insert_a_suppression_name_here>
   Memcheck:Leak
   fun:_Znwm
   fun:_ZNSs4_Rep9_S_createEmmRKSaIcE
   fun:_ZNSs12_S_constructIPKcEEPcT_S3_RKSaIcESt20forward_iterator_tag
   fun:_ZNSsC1EPKcRKSaIcE
   fun:_GLOBAL__sub_I_ConflateCmd.cpp
   fun:call_init.part.0
   fun:_dl_init
   obj:/lib/x86_64-linux-gnu/ld-2.15.so
   obj:*
   obj:*
   obj:*
}
{
   <insert_a_suppression_name_here>
   Memcheck:Leak
   fun:_Znwm
   fun:_ZNSs4_Rep9_S_createEmmRKSaIcE
   fun:_ZNSs12_S_constructIPKcEEPcT_S3_RKSaIcESt20forward_iterator_tag
   fun:_ZNSsC1EPKcRKSaIcE
   fun:_GLOBAL__sub_I_BigCatCmd.cpp
   fun:call_init.part.0
   fun:_dl_init
   obj:/lib/x86_64-linux-gnu/ld-2.15.so
   obj:*
   obj:*
   obj:*
}
{
   <insert_a_suppression_name_here>
   Memcheck:Leak
   fun:_Znwm
   fun:_ZNSs4_Rep9_S_createEmmRKSaIcE
   fun:_ZNSs12_S_constructIPKcEEPcT_S3_RKSaIcESt20forward_iterator_tag
   fun:_ZNSsC1EPKcRKSaIcE
   fun:_GLOBAL__sub_I_Osm2ShpCmd.cpp
   fun:call_init.part.0
   fun:_dl_init
   obj:/lib/x86_64-linux-gnu/ld-2.15.so
   obj:*
   obj:*
   obj:*
}
{
   <insert_a_suppression_name_here>
   Memcheck:Leak
   fun:_Znwm
   fun:_ZNSs4_Rep9_S_createEmmRKSaIcE
   fun:_ZNSs12_S_constructIPKcEEPcT_S3_RKSaIcESt20forward_iterator_tag
   fun:_ZNSsC1EPKcRKSaIcE
   fun:_GLOBAL__sub_I_ConvertCmd.cpp
   fun:call_init.part.0
   fun:_dl_init
   obj:/lib/x86_64-linux-gnu/ld-2.15.so
   obj:*
   obj:*
   obj:*
}
{
   <insert_a_suppression_name_here>
   Memcheck:Leak
   fun:_Znwm
   fun:_ZNSs4_Rep9_S_createEmmRKSaIcE
   fun:_ZNSs12_S_constructIPKcEEPcT_S3_RKSaIcESt20forward_iterator_tag
   fun:_ZNSsC1EPKcRKSaIcE
   fun:_GLOBAL__sub_I_NamedOp.cpp
   fun:call_init.part.0
   fun:_dl_init
   obj:/lib/x86_64-linux-gnu/ld-2.15.so
   obj:*
   obj:*
   obj:*
}
{
   <insert_a_suppression_name_here>
   Memcheck:Leak
   fun:_Znwm
   fun:_ZNSs4_Rep9_S_createEmmRKSaIcE
   fun:_ZNSs12_S_constructIPKcEEPcT_S3_RKSaIcESt20forward_iterator_tag
   fun:_ZNSsC1EPKcRKSaIcE
   fun:_GLOBAL__sub_I_DeriveRubberSheetCmd.cpp
   fun:call_init.part.0
   fun:_dl_init
   obj:/lib/x86_64-linux-gnu/ld-2.15.so
   obj:*
   obj:*
   obj:*
}
{
   <insert_a_suppression_name_here>
   Memcheck:Leak
   fun:_Znwm
   fun:_ZNSs4_Rep9_S_createEmmRKSaIcE
   fun:_ZNSs12_S_constructIPKcEEPcT_S3_RKSaIcESt20forward_iterator_tag
   fun:_ZNSsC1EPKcRKSaIcE
   fun:_GLOBAL__sub_I_ApplyRubberSheetCmd.cpp
   fun:call_init.part.0
   fun:_dl_init
   obj:/lib/x86_64-linux-gnu/ld-2.15.so
   obj:*
   obj:*
   obj:*
}
{
   <insert_a_suppression_name_here>
   Memcheck:Leak
   fun:_Znwm
   fun:_ZNSs4_Rep9_S_createEmmRKSaIcE
   fun:_ZNSs12_S_constructIPKcEEPcT_S3_RKSaIcESt20forward_iterator_tag
   fun:_ZNSsC1EPKcRKSaIcE
   fun:_GLOBAL__sub_I_RubberSheetCmd.cpp
   fun:call_init.part.0
   fun:_dl_init
   obj:/lib/x86_64-linux-gnu/ld-2.15.so
   obj:*
   obj:*
   obj:*
}
{
   <insert_a_suppression_name_here>
   Memcheck:Leak
   fun:_Znwm
   fun:_ZNSs4_Rep9_S_createEmmRKSaIcE
   fun:_ZNSs12_S_constructIPKcEEPcT_S3_RKSaIcESt20forward_iterator_tag
   fun:_ZNSsC1EPKcRKSaIcE
   fun:_GLOBAL__sub_I_PrintNamesCmd.cpp
   fun:call_init.part.0
   fun:_dl_init
   obj:/lib/x86_64-linux-gnu/ld-2.15.so
   obj:*
   obj:*
   obj:*
}
{
   <insert_a_suppression_name_here>
   Memcheck:Leak
   fun:_Znwm
   fun:_ZNSs4_Rep9_S_createEmmRKSaIcE
   fun:_ZNSs12_S_constructIPKcEEPcT_S3_RKSaIcESt20forward_iterator_tag
   fun:_ZNSsC1EPKcRKSaIcE
   fun:_GLOBAL__sub_I_BuildModelCmd.cpp
   fun:call_init.part.0
   fun:_dl_init
   obj:/lib/x86_64-linux-gnu/ld-2.15.so
   obj:*
   obj:*
   obj:*
}
{
   <insert_a_suppression_name_here>
   Memcheck:Leak
   fun:_Znwm
   fun:_ZNSs4_Rep9_S_createEmmRKSaIcE
   fun:_ZNSs12_S_constructIPKcEEPcT_S3_RKSaIcESt20forward_iterator_tag
   fun:_ZNSsC1EPKcRKSaIcE
   fun:_GLOBAL__sub_I_UnifyCmd.cpp
   fun:call_init.part.0
   fun:_dl_init
   obj:/lib/x86_64-linux-gnu/ld-2.15.so
   obj:*
   obj:*
   obj:*
}
{
   <insert_a_suppression_name_here>
   Memcheck:Leak
   fun:_Znwm
   fun:_ZNSs4_Rep9_S_createEmmRKSaIcE
   fun:_ZNSs12_S_constructIPKcEEPcT_S3_RKSaIcESt20forward_iterator_tag
   fun:_ZNSsC1EPKcRKSaIcE
   fun:_GLOBAL__sub_I_ScoreMatchesCmd.cpp
   fun:call_init.part.0
   fun:_dl_init
   obj:/lib/x86_64-linux-gnu/ld-2.15.so
   obj:*
   obj:*
   obj:*
}
{
   <insert_a_suppression_name_here>
   Memcheck:Leak
   fun:_Znwm
   fun:_ZNSs4_Rep9_S_createEmmRKSaIcE
   fun:_ZNSs12_S_constructIPKcEEPcT_S3_RKSaIcESt20forward_iterator_tag
   fun:_ZNSsC1EPKcRKSaIcE
   fun:_GLOBAL__sub_I_EvalMoveCmd.cpp
   fun:call_init.part.0
   fun:_dl_init
   obj:/lib/x86_64-linux-gnu/ld-2.15.so
   obj:*
   obj:*
   obj:*
}
{
   <insert_a_suppression_name_here>
   Memcheck:Leak
   fun:_Znwm
   fun:_ZNSs4_Rep9_S_createEmmRKSaIcE
   fun:_ZNSs12_S_constructIPKcEEPcT_S3_RKSaIcESt20forward_iterator_tag
   fun:_ZNSsC1EPKcRKSaIcE
   fun:_GLOBAL__sub_I_FindIntersectionsCmd.cpp
   fun:call_init.part.0
   fun:_dl_init
   obj:/lib/x86_64-linux-gnu/ld-2.15.so
   obj:*
   obj:*
   obj:*
}
{
   <insert_a_suppression_name_here>
   Memcheck:Leak
   fun:_Znwm
   fun:_ZNSs4_Rep9_S_createEmmRKSaIcE
   fun:_ZNSs12_S_constructIPKcEEPcT_S3_RKSaIcESt20forward_iterator_tag
   fun:_ZNSsC1EPKcRKSaIcE
   fun:_GLOBAL__sub_I_IsMatchCmd.cpp
   fun:call_init.part.0
   fun:_dl_init
   obj:/lib/x86_64-linux-gnu/ld-2.15.so
   obj:*
   obj:*
   obj:*
}
{
   <insert_a_suppression_name_here>
   Memcheck:Leak
   fun:_Znwm
   fun:_ZNSs4_Rep9_S_createEmmRKSaIcE
   fun:_ZNSs12_S_constructIPKcEEPcT_S3_RKSaIcESt20forward_iterator_tag
   fun:_ZNSsC1EPKcRKSaIcE
   fun:_GLOBAL__sub_I_Osm2OgrCmd.cpp
   fun:call_init.part.0
   fun:_dl_init
   obj:/lib/x86_64-linux-gnu/ld-2.15.so
   obj:*
   obj:*
   obj:*
}
{
   <insert_a_suppression_name_here>
   Memcheck:Leak
   fun:_Znwm
   fun:_ZNSs4_Rep9_S_createEmmRKSaIcE
   fun:_ZNSs12_S_constructIPKcEEPcT_S3_RKSaIcESt20forward_iterator_tag
   fun:_ZNSsC1EPKcRKSaIcE
   fun:_GLOBAL__sub_I_HelpCmd.cpp
   fun:__libc_csu_init
   fun:(below main)
}
{
   <insert_a_suppression_name_here>
   Memcheck:Leak
   fun:_Znwm
   fun:_ZNSs4_Rep9_S_createEmmRKSaIcE
   fun:_ZNSs12_S_constructIPKcEEPcT_S3_RKSaIcESt20forward_iterator_tag
   fun:_ZNSsC1EPKcRKSaIcE
   fun:_GLOBAL__sub_I_HelpCmd.cpp
   fun:__libc_csu_init
   fun:(below main)
}
{
   <insert_a_suppression_name_here>
   Memcheck:Leak
   fun:_Znwm
   fun:_ZNSs4_Rep9_S_createEmmRKSaIcE
   fun:_ZNSs12_S_constructIPKcEEPcT_S3_RKSaIcESt20forward_iterator_tag
   fun:_ZNSsC1EPKcRKSaIcE
   fun:_ZN7log4cxx7pattern28FullLocationPatternConverterC1Ev
   fun:_ZN7log4cxx7pattern28FullLocationPatternConverter11newInstanceERKSt6vectorISsSaISsEE
   fun:_ZN7log4cxx7pattern13PatternParser15createConverterERKSsRSsRKSt3mapISsPFNS_7helpers10ObjectPtrTINS0_16PatternConverterEEERKSt6vectorISsSaISsEEESt4lessISsESaISt4pairIS2_SG_EEERSC_
   fun:_ZN7log4cxx7pattern13PatternParser17finalizeConverterEcRKSsiRSsRKNS_7helpers10ObjectPtrTINS0_14FormattingInfoEEERKSt3mapISsPFNS6_INS0_16PatternConverterEEERKSt6vectorISsSaISsEEESt4lessISsESaISt4pairIS2_SK_EEERSE_ISD_SaISD_EERSE_IS8_SaIS8_EE
   fun:_ZN7log4cxx7pattern13PatternParser5parseERKSsRSt6vectorINS_7helpers10ObjectPtrTINS0_16PatternConverterEEESaIS8_EERS4_INS6_INS0_14FormattingInfoEEESaISD_EERKSt3mapISsPFS8_RKS4_ISsSaISsEEESt4lessISsESaISt4pairIS2_SN_EEE
   fun:_ZN7log4cxx13PatternLayout15activateOptionsERNS_7helpers4PoolE
   fun:_ZN7log4cxx13PatternLayoutC1ERKSs
   fun:_ZN4hoot3Log5_initEv
}
{
   <insert_a_suppression_name_here>
   Memcheck:Leak
   fun:_Znwm
   fun:_ZNSs4_Rep9_S_createEmmRKSaIcE
   fun:_ZNSs12_S_constructIPKcEEPcT_S3_RKSaIcESt20forward_iterator_tag
   fun:_ZNSsC1EPKcRKSaIcE
   fun:_GLOBAL__sub_I_FileInputSplit.cpp
   fun:call_init.part.0
   fun:_dl_init
   fun:dl_open_worker
   fun:_dl_catch_error
   fun:_dl_open
   fun:dlopen_doit
   fun:_dl_catch_error
}
{
   <insert_a_suppression_name_here>
   Memcheck:Leak
   fun:_Znwm
   fun:_ZNSs4_Rep9_S_createEmmRKSaIcE
   fun:_ZNSs12_S_constructIPKcEEPcT_S3_RKSaIcESt20forward_iterator_tag
   fun:_ZNSsC1EPKcRKSaIcE
   fun:_GLOBAL__sub_I_NullMapper.cpp
   fun:call_init.part.0
   fun:_dl_init
   fun:dl_open_worker
   fun:_dl_catch_error
   fun:_dl_open
   fun:dlopen_doit
   fun:_dl_catch_error
}
{
   <insert_a_suppression_name_here>
   Memcheck:Leak
   fun:_Znwm
   fun:_ZNSs4_Rep9_S_createEmmRKSaIcE
   fun:_ZNSs12_S_constructIPKcEEPcT_S3_RKSaIcESt20forward_iterator_tag
   fun:_ZNSsC1EPKcRKSaIcE
   fun:_GLOBAL__sub_I_PbfInputSplit.cpp
   fun:call_init.part.0
   fun:_dl_init
   fun:dl_open_worker
   fun:_dl_catch_error
   fun:_dl_open
   fun:dlopen_doit
   fun:_dl_catch_error
}
{
   <insert_a_suppression_name_here>
   Memcheck:Leak
   fun:_Znwm
   fun:_ZNSs4_Rep9_S_createEmmRKSaIcE
   fun:_ZNSs12_S_constructIPKcEEPcT_S3_RKSaIcESt20forward_iterator_tag
   fun:_ZNSsC1EPKcRKSaIcE
   fun:_GLOBAL__sub_I_WayJoin2InputSplit.cpp
   fun:call_init.part.0
   fun:_dl_init
   fun:dl_open_worker
   fun:_dl_catch_error
   fun:_dl_open
   fun:dlopen_doit
   fun:_dl_catch_error
}
{
   <insert_a_suppression_name_here>
   Memcheck:Leak
   fun:_Znwm
   fun:_ZNSs4_Rep9_S_createEmmRKSaIcE
   fun:_ZNSs12_S_constructIPKcEEPcT_S3_RKSaIcESt20forward_iterator_tag
   fun:_ZNSsC1EPKcRKSaIcE
   fun:_GLOBAL__sub_I_PertyCmd.cpp
   fun:call_init.part.0
   fun:_dl_init
   obj:/lib/x86_64-linux-gnu/ld-2.15.so
   obj:*
   obj:*
   obj:*
}
{
   <insert_a_suppression_name_here>
   Memcheck:Leak
   fun:_Znwm
   fun:_ZNSs4_Rep9_S_createEmmRKSaIcE
   fun:_ZNSs12_S_constructIPKcEEPcT_S3_RKSaIcESt20forward_iterator_tag
   fun:_ZNSsC1EPKcRKSaIcE
   fun:_GLOBAL__sub_I_StatsCmd.cpp
   fun:call_init.part.0
   fun:_dl_init
   obj:/lib/x86_64-linux-gnu/ld-2.15.so
   obj:*
   obj:*
   obj:*
}
{
   <insert_a_suppression_name_here>
   Memcheck:Leak
   fun:_Znwm
   fun:_ZNSs4_Rep9_S_createEmmRKSaIcE
   fun:_ZNSs12_S_constructIPKcEEPcT_S3_RKSaIcESt20forward_iterator_tag
   fun:_ZNSsC1EPKcRKSaIcE
   fun:_GLOBAL__sub_I_UnifyCmd.cpp
   fun:call_init.part.0
   fun:_dl_init
   obj:/lib/x86_64-linux-gnu/ld-2.15.so
   obj:*
   obj:*
   obj:*
}
{
   <insert_a_suppression_name_here>
   Memcheck:Leak
   fun:_Znwm
   fun:_ZNSs4_Rep9_S_createEmmRKSaIcE
   fun:_ZNSs12_S_constructIPKcEEPcT_S3_RKSaIcESt20forward_iterator_tag
   fun:_ZNSsC1EPKcRKSaIcE
   fun:_GLOBAL__sub_I_FileInputFormat.cpp
   fun:call_init.part.0
   fun:_dl_init
   fun:dl_open_worker
   fun:_dl_catch_error
   fun:_dl_open
   fun:dlopen_doit
   fun:_dl_catch_error
}
{
   <insert_a_suppression_name_here>
   Memcheck:Leak
   fun:_Znwm
   fun:_ZNSs4_Rep9_S_createEmmRKSaIcE
   fun:_ZNSs12_S_constructIPKcEEPcT_S3_RKSaIcESt20forward_iterator_tag
   fun:_ZNSsC1EPKcRKSaIcE
   fun:_GLOBAL__sub_I_NullReducer.cpp
   fun:call_init.part.0
   fun:_dl_init
   fun:dl_open_worker
   fun:_dl_catch_error
   fun:_dl_open
   fun:dlopen_doit
   fun:_dl_catch_error
}
{
   <insert_a_suppression_name_here>
   Memcheck:Leak
   fun:_Znwm
   fun:_ZNSs4_Rep9_S_createEmmRKSaIcE
   fun:_ZNSs12_S_constructIPKcEEPcT_S3_RKSaIcESt20forward_iterator_tag
   fun:_ZNSsC1EPKcRKSaIcE
   fun:_GLOBAL__sub_I_PbfInputFormat.cpp
   fun:call_init.part.0
   fun:_dl_init
   fun:dl_open_worker
   fun:_dl_catch_error
   fun:_dl_open
   fun:dlopen_doit
   fun:_dl_catch_error
}
{
   <insert_a_suppression_name_here>
   Memcheck:Leak
   fun:_Znwm
   fun:_ZNSs4_Rep9_S_createEmmRKSaIcE
   fun:_ZNSs12_S_constructIPKcEEPcT_S3_RKSaIcESt20forward_iterator_tag
   fun:_ZNSsC1EPKcRKSaIcE
   fun:_GLOBAL__sub_I_WayJoin2InputFormat.cpp
   fun:call_init.part.0
   fun:_dl_init
   fun:dl_open_worker
   fun:_dl_catch_error
   fun:_dl_open
   fun:dlopen_doit
   fun:_dl_catch_error
}
{
   <insert_a_suppression_name_here>
   Memcheck:Leak
   fun:_Znwm
   fun:_ZNSs4_Rep9_S_createEmmRKSaIcE
   fun:_ZNSs12_S_constructIPKcEEPcT_S3_RKSaIcESt20forward_iterator_tag
   fun:_ZNSsC1EPKcRKSaIcE
   fun:_GLOBAL__sub_I_OsmWriter.cpp
   fun:call_init.part.0
   fun:_dl_init
   obj:/lib/x86_64-linux-gnu/ld-2.15.so
   obj:*
   obj:*
   obj:*
}
{
   <insert_a_suppression_name_here>
   Memcheck:Leak
   fun:_Znwm
   fun:_ZNSs4_Rep9_S_createEmmRKSaIcE
   fun:_ZNSs12_S_constructIPKcEEPcT_S3_RKSaIcESt20forward_iterator_tag
   fun:_ZNSsC1EPKcRKSaIcE
   fun:_GLOBAL__sub_I_WayMerger.cpp
   fun:call_init.part.0
   fun:_dl_init
   obj:/lib/x86_64-linux-gnu/ld-2.15.so
   obj:*
   obj:*
   obj:*
}
{
   <insert_a_suppression_name_here>
   Memcheck:Leak
   fun:_Znwm
   fun:_ZNSs4_Rep9_S_createEmmRKSaIcE
   fun:_ZNSs12_S_constructIPKcEEPcT_S3_RKSaIcESt20forward_iterator_tag
   fun:_ZNSsC1EPKcRKSaIcE
   fun:_GLOBAL__sub_I_PbfWriter.cpp
   fun:call_init.part.0
   fun:_dl_init
   obj:/lib/x86_64-linux-gnu/ld-2.15.so
   obj:*
   obj:*
   obj:*
}
{
   <insert_a_suppression_name_here>
   Memcheck:Leak
   fun:_Znwm
   fun:_ZNSs4_Rep9_S_createEmmRKSaIcE
   fun:_ZNSs12_S_constructIPKcEEPcT_S3_RKSaIcESt20forward_iterator_tag
   fun:_ZNSsC1EPKcRKSaIcE
   fun:_GLOBAL__sub_I_BigCatCmd.cpp
   fun:call_init.part.0
   fun:_dl_init
   obj:/lib/x86_64-linux-gnu/ld-2.15.so
   obj:*
   obj:*
   obj:*
}
{
   <insert_a_suppression_name_here>
   Memcheck:Leak
   fun:_Znwm
   fun:_ZNSs4_Rep9_S_createEmmRKSaIcE
   fun:_ZNSs12_S_constructIPKcEEPcT_S3_RKSaIcESt20forward_iterator_tag
   fun:_ZNSsC1EPKcRKSaIcE
   fun:_GLOBAL__sub_I_OgrWriter.cpp
   fun:call_init.part.0
   fun:_dl_init
   obj:/lib/x86_64-linux-gnu/ld-2.15.so
   obj:*
   obj:*
   obj:*
}
{
   <insert_a_suppression_name_here>
   Memcheck:Leak
   fun:_Znwm
   fun:_ZNSs4_Rep9_S_createEmmRKSaIcE
   fun:_ZNSs4_Rep8_M_cloneERKSaIcEm
   fun:_ZNSsC1ERKSs
   fun:_ZN6google8protobuf24SimpleDescriptorDatabase15DescriptorIndexISt4pairIPKviEE7AddFileERKNS0_19FileDescriptorProtoES6_
   fun:_ZN6google8protobuf25EncodedDescriptorDatabase3AddEPKvi
   fun:_ZN6google8protobuf14DescriptorPool24InternalAddGeneratedFileEPKvi
   fun:_ZN4hoot2pb34protobuf_AddDesc_OsmFormat_2eprotoEv
   fun:call_init.part.0
   fun:_dl_init
   obj:/lib/x86_64-linux-gnu/ld-2.15.so
   obj:*
}
{
   <insert_a_suppression_name_here>
   Memcheck:Leak
   fun:_Znwm
   fun:_ZNSs4_Rep9_S_createEmmRKSaIcE
   fun:_ZNSs12_S_constructIPKcEEPcT_S3_RKSaIcESt20forward_iterator_tag
   fun:_ZNSsC1EPKcRKSaIcE
   fun:_ZN7log4cxx7helpers20OnlyOnceErrorHandlerC1Ev
   fun:_ZN7log4cxx16AppenderSkeletonC2Ev
   fun:_ZN7log4cxx14WriterAppenderC2Ev
   fun:_ZN7log4cxx15ConsoleAppenderC1ERKNS_7helpers10ObjectPtrTINS_6LayoutEEE
   fun:_ZN4hoot3Log5_initEv
   fun:_ZN4hoot3Log11getInstanceEv
   fun:main
}
{
   <insert_a_suppression_name_here>
   Memcheck:Leak
   fun:_Znwm
   fun:_ZNSs4_Rep9_S_createEmmRKSaIcE
   fun:_ZNSs12_S_constructIPKcEEPcT_S3_RKSaIcESt20forward_iterator_tag
   fun:_ZNSsC1EPKcRKSaIcE
   fun:_GLOBAL__sub_I_CppSeqFileRecordReader.cpp
   fun:call_init.part.0
   fun:_dl_init
   fun:dl_open_worker
   fun:_dl_catch_error
   fun:_dl_open
   fun:dlopen_doit
   fun:_dl_catch_error
}
{
   <insert_a_suppression_name_here>
   Memcheck:Leak
   fun:_Znwm
   fun:_ZNSs4_Rep9_S_createEmmRKSaIcE
   fun:_ZNSs12_S_constructIPKcEEPcT_S3_RKSaIcESt20forward_iterator_tag
   fun:_ZNSsC1EPKcRKSaIcE
   fun:_GLOBAL__sub_I_CppSeqFileRecordWriter.cpp
   fun:call_init.part.0
   fun:_dl_init
   fun:dl_open_worker
   fun:_dl_catch_error
   fun:_dl_open
   fun:dlopen_doit
   fun:_dl_catch_error
}
{
   <insert_a_suppression_name_here>
   Memcheck:Leak
   fun:_Znwm
   fun:_ZNSs4_Rep9_S_createEmmRKSaIcE
   fun:_ZNSs12_S_constructIPKcEEPcT_S3_RKSaIcESt20forward_iterator_tag
   fun:_ZNSsC1EPKcRKSaIcE
   fun:_GLOBAL__sub_I_LineRecordReader.cpp
   fun:call_init.part.0
   fun:_dl_init
   fun:dl_open_worker
   fun:_dl_catch_error
   fun:_dl_open
   fun:dlopen_doit
   fun:_dl_catch_error
}
{
   <insert_a_suppression_name_here>
   Memcheck:Leak
   fun:_Znwm
   fun:_ZNSs4_Rep9_S_createEmmRKSaIcE
   fun:_ZNSs12_S_constructIPKcEEPcT_S3_RKSaIcESt20forward_iterator_tag
   fun:_ZNSsC1EPKcRKSaIcE
   fun:_GLOBAL__sub_I_LineRecordWriter.cpp
   fun:call_init.part.0
   fun:_dl_init
   fun:dl_open_worker
   fun:_dl_catch_error
   fun:_dl_open
   fun:dlopen_doit
   fun:_dl_catch_error
}
{
   <insert_a_suppression_name_here>
   Memcheck:Leak
   fun:_Znwm
   fun:_ZNSs4_Rep9_S_createEmmRKSaIcE
   fun:_ZNSs12_S_constructIPKcEEPcT_S3_RKSaIcESt20forward_iterator_tag
   fun:_ZNSsC1EPKcRKSaIcE
   fun:_GLOBAL__sub_I_PbfRecordReader.cpp
   fun:call_init.part.0
   fun:_dl_init
   fun:dl_open_worker
   fun:_dl_catch_error
   fun:_dl_open
   fun:dlopen_doit
   fun:_dl_catch_error
}
{
   <insert_a_suppression_name_here>
   Memcheck:Leak
   fun:_Znwm
   fun:_ZNSs4_Rep9_S_createEmmRKSaIcE
   fun:_ZNSs12_S_constructIPKcEEPcT_S3_RKSaIcESt20forward_iterator_tag
   fun:_ZNSsC1EPKcRKSaIcE
   fun:_GLOBAL__sub_I_WayJoinCmd.cpp
   fun:call_init.part.0
   fun:_dl_init
   fun:dl_open_worker
   fun:_dl_catch_error
   fun:_dl_open
   fun:dlopen_doit
   fun:_dl_catch_error
}
{
   <insert_a_suppression_name_here>
   Memcheck:Leak
   fun:_Znwm
   fun:_ZNSs4_Rep9_S_createEmmRKSaIcE
   fun:_ZNSs12_S_constructIPKcEEPcT_S3_RKSaIcESt20forward_iterator_tag
   fun:_ZNSsC1EPKcRKSaIcE
   fun:_GLOBAL__sub_I_PbfRecordWriter.cpp
   fun:call_init.part.0
   fun:_dl_init
   fun:dl_open_worker
   fun:_dl_catch_error
   fun:_dl_open
   fun:dlopen_doit
   fun:_dl_catch_error
}
{
   <insert_a_suppression_name_here>
   Memcheck:Leak
   fun:_Znwm
   fun:_ZNSs4_Rep9_S_createEmmRKSaIcE
   fun:_ZNSs12_S_constructIPKcEEPcT_S3_RKSaIcESt20forward_iterator_tag
   fun:_ZNSsC1EPKcRKSaIcE
   fun:_GLOBAL__sub_I_WayJoin2RecordReader.cpp
   fun:call_init.part.0
   fun:_dl_init
   fun:dl_open_worker
   fun:_dl_catch_error
   fun:_dl_open
   fun:dlopen_doit
   fun:_dl_catch_error
}
{
   <insert_a_suppression_name_here>
   Memcheck:Leak
   fun:_Znwm
   fun:_ZNSs4_Rep9_S_createEmmRKSaIcE
   fun:_ZNSs12_S_constructIPKcEEPcT_S3_RKSaIcESt20forward_iterator_tag
   fun:_ZNSsC1EPKcRKSaIcE
   fun:_GLOBAL__sub_I_MapCropper.cpp
   fun:call_init.part.0
   fun:_dl_init
   obj:/lib/x86_64-linux-gnu/ld-2.15.so
   obj:*
   obj:*
   obj:*
}
{
   <insert_a_suppression_name_here>
   Memcheck:Leak
   fun:_Znwm
   fun:_ZNSs4_Rep9_S_createEmmRKSaIcE
   fun:_ZNSs12_S_constructIPKcEEPcT_S3_RKSaIcESt20forward_iterator_tag
   fun:_ZNSsC1EPKcRKSaIcE
   fun:_GLOBAL__sub_I_MapCleaner.cpp
   fun:call_init.part.0
   fun:_dl_init
   obj:/lib/x86_64-linux-gnu/ld-2.15.so
   obj:*
   obj:*
   obj:*
}
{
   <insert_a_suppression_name_here>
   Memcheck:Leak
   fun:_Znwm
   fun:_ZNSs4_Rep9_S_createEmmRKSaIcE
   fun:_ZNSs12_S_constructIPKcEEPcT_S3_RKSaIcESt20forward_iterator_tag
   fun:_ZNSsC1EPKcRKSaIcE
   fun:_GLOBAL__sub_I_CleanupCmd.cpp
   fun:call_init.part.0
   fun:_dl_init
   obj:/lib/x86_64-linux-gnu/ld-2.15.so
   obj:*
   obj:*
   obj:*
}
{
   <insert_a_suppression_name_here>
   Memcheck:Leak
   fun:_Znwm
   fun:_ZNSs4_Rep9_S_createEmmRKSaIcE
   fun:_ZNSs12_S_constructIPKcEEPcT_S3_RKSaIcESt20forward_iterator_tag
   fun:_ZNSsC1EPKcRKSaIcE
   fun:_GLOBAL__sub_I_Ogr2OsmCmd.cpp
   fun:call_init.part.0
   fun:_dl_init
   obj:/lib/x86_64-linux-gnu/ld-2.15.so
   obj:*
   obj:*
   obj:*
}
{
   <insert_a_suppression_name_here>
   Memcheck:Leak
   fun:_Znwm
   fun:_ZNSs4_Rep9_S_createEmmRKSaIcE
   fun:_ZNSs12_S_constructIPKcEEPcT_S3_RKSaIcESt20forward_iterator_tag
   fun:_ZNSsC1EPKcRKSaIcE
   fun:_GLOBAL__sub_I_VersionCmd.cpp
   fun:call_init.part.0
   fun:_dl_init
   obj:/lib/x86_64-linux-gnu/ld-2.15.so
   obj:*
   obj:*
   obj:*
}
{
   <insert_a_suppression_name_here>
   Memcheck:Leak
   fun:_Znwm
   fun:_ZNSs4_Rep9_S_createEmmRKSaIcE
   fun:_ZNSs12_S_constructIPKcEEPcT_S3_RKSaIcESt20forward_iterator_tag
   fun:_ZNSsC1EPKcRKSaIcE
   fun:_GLOBAL__sub_I_Osm2ShpCmd.cpp
   fun:call_init.part.0
   fun:_dl_init
   obj:/lib/x86_64-linux-gnu/ld-2.15.so
   obj:*
   obj:*
   obj:*
}
{
   <insert_a_suppression_name_here>
   Memcheck:Leak
   fun:_Znwm
   fun:_ZNSs4_Rep9_S_createEmmRKSaIcE
   fun:_ZNSs12_S_constructIPKcEEPcT_S3_RKSaIcESt20forward_iterator_tag
   fun:_ZNSsC1EPKcRKSaIcE
   fun:_GLOBAL__sub_I_ConvertCmd.cpp
   fun:call_init.part.0
   fun:_dl_init
   obj:/lib/x86_64-linux-gnu/ld-2.15.so
   obj:*
   obj:*
   obj:*
}
{
   <insert_a_suppression_name_here>
   Memcheck:Leak
   fun:_Znwm
   fun:_ZNSs4_Rep9_S_createEmmRKSaIcE
   fun:_ZNSs12_S_constructIPKcEEPcT_S3_RKSaIcESt20forward_iterator_tag
   fun:_ZNSsC1EPKcRKSaIcE
   fun:_GLOBAL__sub_I_IsMatchCmd.cpp
   fun:call_init.part.0
   fun:_dl_init
   obj:/lib/x86_64-linux-gnu/ld-2.15.so
   obj:*
   obj:*
   obj:*
}
{
   <insert_a_suppression_name_here>
   Memcheck:Leak
   fun:_Znwm
   fun:_ZNSs4_Rep9_S_createEmmRKSaIcE
   fun:_ZNSs12_S_constructIPKcEEPcT_S3_RKSaIcESt20forward_iterator_tag
   fun:_ZNSsC1EPKcRKSaIcE
   fun:_GLOBAL__sub_I_BigPertyOp.cpp
   fun:call_init.part.0
   fun:_dl_init
   obj:/lib/x86_64-linux-gnu/ld-2.15.so
   obj:*
   obj:*
   obj:*
}
{
   <insert_a_suppression_name_here>
   Memcheck:Leak
   fun:_Znwm
   fun:_ZNSs4_Rep9_S_createEmmRKSaIcE
   fun:_ZNSs12_S_constructIPKcEEPcT_S3_RKSaIcESt20forward_iterator_tag
   fun:_ZNSsC1EPKcRKSaIcE
   fun:_GLOBAL__sub_I_Osm2OgrCmd.cpp
   fun:call_init.part.0
   fun:_dl_init
   obj:/lib/x86_64-linux-gnu/ld-2.15.so
   obj:*
   obj:*
   obj:*
}
{
   <insert_a_suppression_name_here>
   Memcheck:Leak
   fun:_Znwm
   fun:_ZNSs4_Rep9_S_createEmmRKSaIcE
   fun:_ZNSs4_Rep8_M_cloneERKSaIcEm
   fun:_ZNSsC1ERKSs
   fun:_ZN6google8protobuf24SimpleDescriptorDatabase15DescriptorIndexISt4pairIPKviEE7AddFileERKNS0_19FileDescriptorProtoES6_
   fun:_ZN6google8protobuf25EncodedDescriptorDatabase3AddEPKvi
   fun:_ZN6google8protobuf14DescriptorPool24InternalAddGeneratedFileEPKvi
   fun:_ZN4hoot2pb35protobuf_AddDesc_FileFormat_2eprotoEv
   fun:call_init.part.0
   fun:_dl_init
   obj:/lib/x86_64-linux-gnu/ld-2.15.so
   obj:*
}
{
   <insert_a_suppression_name_here>
   Memcheck:Leak
   fun:_Znwm
   fun:_ZNSs4_Rep9_S_createEmmRKSaIcE
   fun:_ZNSs12_S_constructIPKcEEPcT_S3_RKSaIcESt20forward_iterator_tag
   fun:_ZNSsC1EPKcRKSaIcE
   fun:_GLOBAL__sub_I_BigPertyCmd.cpp
   fun:call_init.part.0
   fun:_dl_init
   fun:dl_open_worker
   fun:_dl_catch_error
   fun:_dl_open
   fun:dlopen_doit
   fun:_dl_catch_error
}
{
   <insert_a_suppression_name_here>
   Memcheck:Leak
   fun:_Znwm
   fun:_ZNSs4_Rep9_S_createEmmRKSaIcE
   fun:_ZNSs12_S_constructIPKcEEPcT_S3_RKSaIcESt20forward_iterator_tag
   fun:_ZNSsC1EPKcRKSaIcE
   fun:_GLOBAL__sub_I_BigUnifyCmd.cpp
   fun:call_init.part.0
   fun:_dl_init
   fun:dl_open_worker
   fun:_dl_catch_error
   fun:_dl_open
   fun:dlopen_doit
   fun:_dl_catch_error
}
{
   <insert_a_suppression_name_here>
   Memcheck:Leak
   fun:_Znwm
   fun:_ZNSs4_Rep9_S_createEmmRKSaIcE
   fun:_ZNSs12_S_constructIPKcEEPcT_S3_RKSaIcESt20forward_iterator_tag
   fun:_ZNSsC1EPKcRKSaIcE
   fun:_GLOBAL__sub_I_WayMerger.cpp
   fun:call_init.part.0
   fun:_dl_init
   obj:/lib/x86_64-linux-gnu/ld-2.15.so
   obj:*
   obj:*
   obj:*
}
{
   <insert_a_suppression_name_here>
   Memcheck:Leak
   fun:_Znwm
   fun:_ZNSs4_Rep9_S_createEmmRKSaIcE
   fun:_ZNSs12_S_constructIPKcEEPcT_S3_RKSaIcESt20forward_iterator_tag
   fun:_ZNSsC1EPKcRKSaIcE
   fun:_GLOBAL__sub_I_WayTagMerger.cpp
   fun:call_init.part.0
   fun:_dl_init
   obj:/lib/x86_64-linux-gnu/ld-2.15.so
   obj:*
   obj:*
   obj:*
}
{
   <insert_a_suppression_name_here>
   Memcheck:Leak
   fun:_Znwm
   fun:_ZNSs4_Rep9_S_createEmmRKSaIcE
   fun:_ZNSs12_S_constructIPKcEEPcT_S3_RKSaIcESt20forward_iterator_tag
   fun:_ZNSsC1EPKcRKSaIcE
   fun:_GLOBAL__sub_I_RubberSheet.cpp
   fun:call_init.part.0
   fun:_dl_init
   obj:/lib/x86_64-linux-gnu/ld-2.15.so
   obj:*
   obj:*
   obj:*
}
{
   <insert_a_suppression_name_here>
   Memcheck:Leak
   fun:_Znwm
   fun:_ZNSs4_Rep9_S_createEmmRKSaIcE
   fun:_ZNSs12_S_constructIPKcEEPcT_S3_RKSaIcESt20forward_iterator_tag
   fun:_ZNSsC1EPKcRKSaIcE
   fun:_GLOBAL__sub_I_RubberSheet.cpp
   fun:call_init.part.0
   fun:_dl_init
   obj:/lib/x86_64-linux-gnu/ld-2.15.so
   obj:*
   obj:*
   obj:*
}
{
   <insert_a_suppression_name_here>
   Memcheck:Leak
   fun:_Znwm
   fun:_ZNSs4_Rep9_S_createEmmRKSaIcE
   fun:_ZNSs12_S_constructIPKcEEPcT_S3_RKSaIcESt20forward_iterator_tag
   fun:_ZNSsC1EPKcRKSaIcE
   fun:_GLOBAL__sub_I_RubberSheet.cpp
   fun:call_init.part.0
   fun:_dl_init
   obj:/lib/x86_64-linux-gnu/ld-2.15.so
   obj:*
   obj:*
   obj:*
}
{
   <insert_a_suppression_name_here>
   Memcheck:Leak
   fun:_Znwm
   fun:_ZNSs4_Rep9_S_createEmmRKSaIcE
   fun:_ZNSs12_S_constructIPKcEEPcT_S3_RKSaIcESt20forward_iterator_tag
   fun:_ZNSsC1EPKcRKSaIcE
   fun:_GLOBAL__sub_I_RubberSheet.cpp
   fun:call_init.part.0
   fun:_dl_init
   obj:/lib/x86_64-linux-gnu/ld-2.15.so
   obj:*
   obj:*
   obj:*
}
{
   <insert_a_suppression_name_here>
   Memcheck:Leak
   fun:_Znwm
   fun:_ZNSs4_Rep9_S_createEmmRKSaIcE
   fun:_ZNSs12_S_constructIPKcEEPcT_S3_RKSaIcESt20forward_iterator_tag
   fun:_ZNSsC1EPKcRKSaIcE
   fun:_GLOBAL__sub_I_ConflateCmd.cpp
   fun:call_init.part.0
   fun:_dl_init
   obj:/lib/x86_64-linux-gnu/ld-2.15.so
   obj:*
   obj:*
   obj:*
}
{
   <insert_a_suppression_name_here>
   Memcheck:Leak
   fun:_Znwm
   fun:_ZNSs4_Rep9_S_createEmmRKSaIcE
   fun:_ZNSs12_S_constructIPKcEEPcT_S3_RKSaIcESt20forward_iterator_tag
   fun:_ZNSsC1EPKcRKSaIcE
   fun:_GLOBAL__sub_I_WaySnapMerger.cpp
   fun:call_init.part.0
   fun:_dl_init
   obj:/lib/x86_64-linux-gnu/ld-2.15.so
   obj:*
   obj:*
   obj:*
}
{
   <insert_a_suppression_name_here>
   Memcheck:Leak
   fun:_Znwm
   fun:_ZNSs4_Rep9_S_createEmmRKSaIcE
   fun:_ZNSs12_S_constructIPKcEEPcT_S3_RKSaIcESt20forward_iterator_tag
   fun:_ZNSsC1EPKcRKSaIcE
   fun:_GLOBAL__sub_I_EvalMoveCmd.cpp
   fun:call_init.part.0
   fun:_dl_init
   obj:/lib/x86_64-linux-gnu/ld-2.15.so
   obj:*
   obj:*
   obj:*
}
{
   <insert_a_suppression_name_here>
   Memcheck:Leak
   fun:_Znwm
   fun:_ZNSs4_Rep9_S_createEmmRKSaIcE
   fun:_ZNSs12_S_constructIPKcEEPcT_S3_RKSaIcESt20forward_iterator_tag
   fun:_ZNSsC1EPKcRKSaIcE
   fun:_GLOBAL__sub_I_BuildingMergeManipulator.cpp
   fun:call_init.part.0
   fun:_dl_init
   obj:/lib/x86_64-linux-gnu/ld-2.15.so
   obj:*
   obj:*
   obj:*
}
{
   <insert_a_suppression_name_here>
   Memcheck:Leak
   fun:_Znwm
   fun:_ZNSs4_Rep9_S_createEmmRKSaIcE
   fun:_ZNSs12_S_constructIPKcEEPcT_S3_RKSaIcESt20forward_iterator_tag
   fun:_ZNSsC1EPKcRKSaIcE
   fun:_ZN7log4cxx7helpers20OnlyOnceErrorHandlerC1Ev
   fun:_ZN7log4cxx16AppenderSkeletonC2Ev
   fun:_ZN7log4cxx14WriterAppenderC2Ev
   fun:_ZN7log4cxx15ConsoleAppenderC1ERKNS_7helpers10ObjectPtrTINS_6LayoutEEE
   fun:_ZN4hoot3Log5_initEv
   fun:_ZN4hoot3Log11getInstanceEv
   fun:main
}
{
   <insert_a_suppression_name_here>
   Memcheck:Leak
   fun:_Znwm
   fun:_ZNSs4_Rep9_S_createEmmRKSaIcE
   fun:_ZNSs12_S_constructIPKcEEPcT_S3_RKSaIcESt20forward_iterator_tag
   fun:_ZNSsC1EPKcRKSaIcE
   fun:_GLOBAL__sub_I_FileInputSplit.cpp
   fun:call_init.part.0
   fun:_dl_init
   fun:dl_open_worker
   fun:_dl_catch_error
   fun:_dl_open
   fun:dlopen_doit
   fun:_dl_catch_error
}
{
   <insert_a_suppression_name_here>
   Memcheck:Leak
   fun:_Znwm
   fun:_ZNSs4_Rep9_S_createEmmRKSaIcE
   fun:_ZNSs12_S_constructIPKcEEPcT_S3_RKSaIcESt20forward_iterator_tag
   fun:_ZNSsC1EPKcRKSaIcE
   fun:_GLOBAL__sub_I_TileOpMapper.cpp
   fun:call_init.part.0
   fun:_dl_init
   fun:dl_open_worker
   fun:_dl_catch_error
   fun:_dl_open
   fun:dlopen_doit
   fun:_dl_catch_error
}
{
   <insert_a_suppression_name_here>
   Memcheck:Leak
   fun:_Znwm
   fun:_ZNSs4_Rep9_S_createEmmRKSaIcE
   fun:_ZNSs12_S_constructIPKcEEPcT_S3_RKSaIcESt20forward_iterator_tag
   fun:_ZNSsC1EPKcRKSaIcE
   fun:_GLOBAL__sub_I_OsmWriter.cpp
   fun:call_init.part.0
   fun:_dl_init
   obj:/lib/x86_64-linux-gnu/ld-2.15.so
   obj:*
   obj:*
   obj:*
}
{
   <insert_a_suppression_name_here>
   Memcheck:Leak
   fun:_Znwm
   fun:_ZNSs4_Rep9_S_createEmmRKSaIcE
   fun:_ZNSs12_S_constructIPKcEEPcT_S3_RKSaIcESt20forward_iterator_tag
   fun:_ZNSsC1EPKcRKSaIcE
   fun:_GLOBAL__sub_I_ShapefileWriter.cpp
   fun:call_init.part.0
   fun:_dl_init
   obj:/lib/x86_64-linux-gnu/ld-2.15.so
   obj:*
   obj:*
   obj:*
}
{
   <insert_a_suppression_name_here>
   Memcheck:Leak
   fun:_Znwm
   fun:_ZNSs4_Rep9_S_createEmmRKSaIcE
   fun:_ZNSs12_S_constructIPKcEEPcT_S3_RKSaIcESt20forward_iterator_tag
   fun:_ZNSsC1EPKcRKSaIcE
   fun:_GLOBAL__sub_I_PbfWriter.cpp
   fun:call_init.part.0
   fun:_dl_init
   obj:/lib/x86_64-linux-gnu/ld-2.15.so
   obj:*
   obj:*
   obj:*
}
{
   <insert_a_suppression_name_here>
   Memcheck:Leak
   fun:_Znwm
   fun:_ZNSs4_Rep9_S_createEmmRKSaIcE
   fun:_ZNSs12_S_constructIPKcEEPcT_S3_RKSaIcESt20forward_iterator_tag
   fun:_ZNSsC1EPKcRKSaIcE
   fun:_GLOBAL__sub_I_WayTagMerger.cpp
   fun:call_init.part.0
   fun:_dl_init
   obj:/lib/x86_64-linux-gnu/ld-2.15.so
   obj:*
   obj:*
   obj:*
}
{
   <insert_a_suppression_name_here>
   Memcheck:Leak
   fun:_Znwm
   fun:_ZNSs4_Rep9_S_createEmmRKSaIcE
   fun:_ZNSs12_S_constructIPKcEEPcT_S3_RKSaIcESt20forward_iterator_tag
   fun:_ZNSsC1EPKcRKSaIcE
   fun:_GLOBAL__sub_I_BuildingMatchCreator.cpp
   fun:call_init.part.0
   fun:_dl_init
   obj:/lib/x86_64-linux-gnu/ld-2.15.so
   obj:*
   obj:*
   obj:*
}
{
   <insert_a_suppression_name_here>
   Memcheck:Leak
   fun:_Znwm
   fun:_ZNSs4_Rep9_S_createEmmRKSaIcE
   fun:_ZNSs12_S_constructIPKcEEPcT_S3_RKSaIcESt20forward_iterator_tag
   fun:_ZNSsC1EPKcRKSaIcE
   fun:_GLOBAL__sub_I_PlacesPoiMatchCreator.cpp
   fun:call_init.part.0
   fun:_dl_init
   obj:/lib/x86_64-linux-gnu/ld-2.15.so
   obj:*
   obj:*
   obj:*
}
{
   <insert_a_suppression_name_here>
   Memcheck:Leak
   fun:_Znwm
   fun:_ZNSs4_Rep9_S_createEmmRKSaIcE
   fun:_ZNSs12_S_constructIPKcEEPcT_S3_RKSaIcESt20forward_iterator_tag
   fun:_ZNSsC1EPKcRKSaIcE
   fun:_GLOBAL__sub_I_CustomPoiMatchCreator.cpp
   fun:call_init.part.0
   fun:_dl_init
   obj:/lib/x86_64-linux-gnu/ld-2.15.so
   obj:*
   obj:*
   obj:*
}
{
   <insert_a_suppression_name_here>
   Memcheck:Leak
   fun:_Znwm
   fun:_ZNSs4_Rep9_S_createEmmRKSaIcE
   fun:_ZNSs12_S_constructIPKcEEPcT_S3_RKSaIcESt20forward_iterator_tag
   fun:_ZNSsC1EPKcRKSaIcE
   fun:_GLOBAL__sub_I_ServicesDbWriter.cpp
   fun:call_init.part.0
   fun:_dl_init
   obj:/lib/x86_64-linux-gnu/ld-2.15.so
   obj:*
   obj:*
   obj:*
}
{
   <insert_a_suppression_name_here>
   Memcheck:Leak
   fun:_Znwm
   fun:_ZNSs4_Rep9_S_createEmmRKSaIcE
   fun:_ZNSs12_S_constructIPKcEEPcT_S3_RKSaIcESt20forward_iterator_tag
   fun:_ZNSsC1EPKcRKSaIcE
   fun:_GLOBAL__sub_I_OgrWriter.cpp
   fun:call_init.part.0
   fun:_dl_init
   obj:/lib/x86_64-linux-gnu/ld-2.15.so
   obj:*
   obj:*
   obj:*
}
{
   <insert_a_suppression_name_here>
   Memcheck:Leak
   fun:_Znwm
   fun:_ZNSs4_Rep9_S_createEmmRKSaIcE
   fun:_ZNSs12_S_constructIPKcEEPcT_S3_RKSaIcESt20forward_iterator_tag
   fun:_ZNSsC1EPKcRKSaIcE
   fun:_GLOBAL__sub_I_FileInputFormat.cpp
   fun:call_init.part.0
   fun:_dl_init
   fun:dl_open_worker
   fun:_dl_catch_error
   fun:_dl_open
   fun:dlopen_doit
   fun:_dl_catch_error
}
{
   <insert_a_suppression_name_here>
   Memcheck:Leak
   fun:_Znwm
   fun:_ZNSs4_Rep9_S_createEmmRKSaIcE
   fun:_ZNSs12_S_constructIPKcEEPcT_S3_RKSaIcESt20forward_iterator_tag
   fun:_ZNSsC1EPKcRKSaIcE
   fun:_GLOBAL__sub_I_PbfInputSplit.cpp
   fun:call_init.part.0
   fun:_dl_init
   fun:dl_open_worker
   fun:_dl_catch_error
   fun:_dl_open
   fun:dlopen_doit
   fun:_dl_catch_error
}
{
   <insert_a_suppression_name_here>
   Memcheck:Leak
   fun:_Znwm
   fun:_ZNSs4_Rep9_S_createEmmRKSaIcE
   fun:_ZNSs12_S_constructIPKcEEPcT_S3_RKSaIcESt20forward_iterator_tag
   fun:_ZNSsC1EPKcRKSaIcE
   fun:_GLOBAL__sub_I_PaintNodesCmd.cpp
   fun:call_init.part.0
   fun:_dl_init
   fun:dl_open_worker
   fun:_dl_catch_error
   fun:_dl_open
   fun:dlopen_doit
   fun:_dl_catch_error
}
{
   <insert_a_suppression_name_here>
   Memcheck:Leak
   fun:_Znwm
   fun:_ZNSs4_Rep9_S_createEmmRKSaIcE
   fun:_ZNSs12_S_constructIPKcEEPcT_S3_RKSaIcESt20forward_iterator_tag
   fun:_ZNSsC1EPKcRKSaIcE
   fun:_GLOBAL__sub_I_TileOpReducer.cpp
   fun:call_init.part.0
   fun:_dl_init
   fun:dl_open_worker
   fun:_dl_catch_error
   fun:_dl_open
   fun:dlopen_doit
   fun:_dl_catch_error
}
{
   <insert_a_suppression_name_here>
   Memcheck:Leak
   fun:_Znwm
   fun:_ZNSs4_Rep9_S_createEmmRKSaIcE
   fun:_ZNSs12_S_constructIPKcEEPcT_S3_RKSaIcESt20forward_iterator_tag
   fun:_ZNSsC1EPKcRKSaIcE
   fun:_GLOBAL__sub_I_BigOgr2OsmCmd.cpp
   fun:call_init.part.0
   fun:_dl_init
   obj:/lib/x86_64-linux-gnu/ld-2.15.so
   obj:*
   obj:*
   obj:*
}
{
   <insert_a_suppression_name_here>
   Memcheck:Leak
   fun:_Znwm
   fun:_ZNSs4_Rep9_S_createEmmRKSaIcE
   fun:_ZNSs12_S_constructIPKcEEPcT_S3_RKSaIcESt20forward_iterator_tag
   fun:_ZNSsC1EPKcRKSaIcE
   fun:_GLOBAL__sub_I_AlphaShapeCmd.cpp
   fun:call_init.part.0
   fun:_dl_init
   obj:/lib/x86_64-linux-gnu/ld-2.15.so
   obj:*
   obj:*
   obj:*
}
{
   <insert_a_suppression_name_here>
   Memcheck:Leak
   fun:_Znwm
   fun:_ZNSs4_Rep9_S_createEmmRKSaIcE
   fun:_ZNSs12_S_constructIPKcEEPcT_S3_RKSaIcESt20forward_iterator_tag
   fun:_ZNSsC1EPKcRKSaIcE
   fun:_GLOBAL__sub_I_WaySplitterOp.cpp
   fun:call_init.part.0
   fun:_dl_init
   obj:/lib/x86_64-linux-gnu/ld-2.15.so
   obj:*
   obj:*
   obj:*
}
{
   <insert_a_suppression_name_here>
   Memcheck:Leak
   fun:_Znwm
   fun:_ZNSs4_Rep9_S_createEmmRKSaIcE
   fun:_ZNSs12_S_constructIPKcEEPcT_S3_RKSaIcESt20forward_iterator_tag
   fun:_ZNSsC1EPKcRKSaIcE
   fun:_GLOBAL__sub_I_NameExtractor.cpp
   fun:call_init.part.0
   fun:_dl_init
   obj:/lib/x86_64-linux-gnu/ld-2.15.so
   obj:*
   obj:*
   obj:*
}
{
   <insert_a_suppression_name_here>
   Memcheck:Leak
   fun:_Znwm
   fun:_ZNSs4_Rep9_S_createEmmRKSaIcE
   fun:_ZNSs12_S_constructIPKcEEPcT_S3_RKSaIcESt20forward_iterator_tag
   fun:_ZNSsC1EPKcRKSaIcE
   fun:_GLOBAL__sub_I_PrintNamesCmd.cpp
   fun:call_init.part.0
   fun:_dl_init
   obj:/lib/x86_64-linux-gnu/ld-2.15.so
   obj:*
   obj:*
   obj:*
}
{
   <insert_a_suppression_name_here>
   Memcheck:Leak
   fun:_Znwm
   fun:_ZNSs4_Rep9_S_createEmmRKSaIcE
   fun:_ZNSs12_S_constructIPKcEEPcT_S3_RKSaIcESt20forward_iterator_tag
   fun:_ZNSsC1EPKcRKSaIcE
   fun:_GLOBAL__sub_I_BuildModelCmd.cpp
   fun:call_init.part.0
   fun:_dl_init
   obj:/lib/x86_64-linux-gnu/ld-2.15.so
   obj:*
   obj:*
   obj:*
}
{
   <insert_a_suppression_name_here>
   Memcheck:Leak
   fun:_Znwm
   fun:_ZNSs4_Rep9_S_createEmmRKSaIcE
   fun:_ZNSs12_S_constructIPKcEEPcT_S3_RKSaIcESt20forward_iterator_tag
   fun:_ZNSsC1EPKcRKSaIcE
   fun:_GLOBAL__sub_I_BuildingMergerCreator.cpp
   fun:call_init.part.0
   fun:_dl_init
   obj:/lib/x86_64-linux-gnu/ld-2.15.so
   obj:*
   obj:*
   obj:*
}
{
   <insert_a_suppression_name_here>
   Memcheck:Leak
   fun:_Znwm
   fun:_ZNSs4_Rep9_S_createEmmRKSaIcE
   fun:_ZNSs12_S_constructIPKcEEPcT_S3_RKSaIcESt20forward_iterator_tag
   fun:_ZNSsC1EPKcRKSaIcE
   fun:_GLOBAL__sub_I_WaySnapMerger.cpp
   fun:call_init.part.0
   fun:_dl_init
   obj:/lib/x86_64-linux-gnu/ld-2.15.so
   obj:*
   obj:*
   obj:*
}
{
   <insert_a_suppression_name_here>
   Memcheck:Leak
   fun:_Znwm
   fun:_ZNSs4_Rep9_S_createEmmRKSaIcE
   fun:_ZNSs12_S_constructIPKcEEPcT_S3_RKSaIcESt20forward_iterator_tag
   fun:_ZNSsC1EPKcRKSaIcE
   fun:_GLOBAL__sub_I_PlacesPoiMergerCreator.cpp
   fun:call_init.part.0
   fun:_dl_init
   obj:/lib/x86_64-linux-gnu/ld-2.15.so
   obj:*
   obj:*
   obj:*
}
{
   <insert_a_suppression_name_here>
   Memcheck:Leak
   fun:_Znwm
   fun:_ZNSs4_Rep9_S_createEmmRKSaIcE
   fun:_ZNSs12_S_constructIPKcEEPcT_S3_RKSaIcESt20forward_iterator_tag
   fun:_ZNSsC1EPKcRKSaIcE
   fun:_GLOBAL__sub_I_CustomPoiMergerCreator.cpp
   fun:call_init.part.0
   fun:_dl_init
   obj:/lib/x86_64-linux-gnu/ld-2.15.so
   obj:*
   obj:*
   obj:*
}
{
   <insert_a_suppression_name_here>
   Memcheck:Leak
   fun:_Znwm
   fun:_ZNSs4_Rep9_S_createEmmRKSaIcE
   fun:_ZNSs12_S_constructIPKcEEPcT_S3_RKSaIcESt20forward_iterator_tag
   fun:_ZNSsC1EPKcRKSaIcE
   fun:_GLOBAL__sub_I_TranslationOp.cpp
   fun:call_init.part.0
   fun:_dl_init
   obj:/lib/x86_64-linux-gnu/ld-2.15.so
   obj:*
   obj:*
   obj:*
}
{
   <insert_a_suppression_name_here>
   Memcheck:Leak
   fun:_Znwm
   fun:_ZNSs4_Rep9_S_createEmmRKSaIcE
   fun:_ZNSs12_S_constructIPKcEEPcT_S3_RKSaIcESt20forward_iterator_tag
   fun:_ZNSsC1EPKcRKSaIcE
   fun:_GLOBAL__sub_I_LineRecordReader.cpp
   fun:call_init.part.0
   fun:_dl_init
   fun:dl_open_worker
   fun:_dl_catch_error
   fun:_dl_open
   fun:dlopen_doit
   fun:_dl_catch_error
}
{
   <insert_a_suppression_name_here>
   Memcheck:Leak
   fun:_Znwm
   fun:_ZNSs4_Rep9_S_createEmmRKSaIcE
   fun:_ZNSs12_S_constructIPKcEEPcT_S3_RKSaIcESt20forward_iterator_tag
   fun:_ZNSsC1EPKcRKSaIcE
   fun:_GLOBAL__sub_I_LineRecordWriter.cpp
   fun:call_init.part.0
   fun:_dl_init
   fun:dl_open_worker
   fun:_dl_catch_error
   fun:_dl_open
   fun:dlopen_doit
   fun:_dl_catch_error
}
{
   <insert_a_suppression_name_here>
   Memcheck:Leak
   fun:_Znwm
   fun:_ZNSs4_Rep9_S_createEmmRKSaIcE
   fun:_ZNSs12_S_constructIPKcEEPcT_S3_RKSaIcESt20forward_iterator_tag
   fun:_ZNSsC1EPKcRKSaIcE
   fun:_GLOBAL__sub_I_PbfInputFormat.cpp
   fun:call_init.part.0
   fun:_dl_init
   fun:dl_open_worker
   fun:_dl_catch_error
   fun:_dl_open
   fun:dlopen_doit
   fun:_dl_catch_error
}
{
   <insert_a_suppression_name_here>
   Memcheck:Leak
   fun:_Znwm
   fun:_ZNSs4_Rep9_S_createEmmRKSaIcE
   fun:_ZNSs12_S_constructIPKcEEPcT_S3_RKSaIcESt20forward_iterator_tag
   fun:_ZNSsC1EPKcRKSaIcE
   fun:_GLOBAL__sub_I_WayJoin1Mapper.cpp
   fun:call_init.part.0
   fun:_dl_init
   fun:dl_open_worker
   fun:_dl_catch_error
   fun:_dl_open
   fun:dlopen_doit
   fun:_dl_catch_error
}
{
   <insert_a_suppression_name_here>
   Memcheck:Leak
   fun:_Znwm
   fun:_ZNSs4_Rep9_S_createEmmRKSaIcE
   fun:_ZNSs12_S_constructIPKcEEPcT_S3_RKSaIcESt20forward_iterator_tag
   fun:_ZNSsC1EPKcRKSaIcE
   fun:_GLOBAL__sub_I_WayJoin2Mapper.cpp
   fun:call_init.part.0
   fun:_dl_init
   fun:dl_open_worker
   fun:_dl_catch_error
   fun:_dl_open
   fun:dlopen_doit
   fun:_dl_catch_error
}
{
   <insert_a_suppression_name_here>
   Memcheck:Leak
   fun:_Znwm
   fun:_ZNSs4_Rep9_S_createEmmRKSaIcE
   fun:_ZNSs12_S_constructIPKcEEPcT_S3_RKSaIcESt20forward_iterator_tag
   fun:_ZNSsC1EPKcRKSaIcE
   fun:_GLOBAL__sub_I_ConflateMapper.cpp
   fun:call_init.part.0
   fun:_dl_init
   fun:dl_open_worker
   fun:_dl_catch_error
   fun:_dl_open
   fun:dlopen_doit
   fun:_dl_catch_error
}
{
   <insert_a_suppression_name_here>
   Memcheck:Leak
   fun:_Znwm
   fun:_ZNSs4_Rep9_S_createEmmRKSaIcE
   fun:_ZNSs12_S_constructIPKcEEPcT_S3_RKSaIcESt20forward_iterator_tag
   fun:_ZNSsC1EPKcRKSaIcE
   fun:_GLOBAL__sub_I_MapStatsMapper.cpp
   fun:call_init.part.0
   fun:_dl_init
   fun:dl_open_worker
   fun:_dl_catch_error
   fun:_dl_open
   fun:dlopen_doit
   fun:_dl_catch_error
}
{
   <insert_a_suppression_name_here>
   Memcheck:Leak
   fun:_Znwm
   fun:_ZNSs4_Rep9_S_createEmmRKSaIcE
   fun:_ZNSs12_S_constructIPKcEEPcT_S3_RKSaIcESt20forward_iterator_tag
   fun:_ZNSsC1EPKcRKSaIcE
   fun:_GLOBAL__sub_I_BigConflateCmd.cpp
   fun:call_init.part.0
   fun:_dl_init
   fun:dl_open_worker
   fun:_dl_catch_error
   fun:_dl_open
   fun:dlopen_doit
   fun:_dl_catch_error
}
{
   <insert_a_suppression_name_here>
   Memcheck:Leak
   fun:_Znwm
   fun:_ZNSs4_Rep9_S_createEmmRKSaIcE
   fun:_ZNSs12_S_constructIPKcEEPcT_S3_RKSaIcESt20forward_iterator_tag
   fun:_ZNSsC1EPKcRKSaIcE
   fun:_GLOBAL__sub_I_LevenshteinDistance.cpp
   fun:call_init.part.0
   fun:_dl_init
   obj:/lib/x86_64-linux-gnu/ld-2.15.so
   obj:*
   obj:*
   obj:*
}
{
   <insert_a_suppression_name_here>
   Memcheck:Leak
   fun:_Znwm
   fun:_ZNSs4_Rep9_S_createEmmRKSaIcE
   fun:_ZNSs12_S_constructIPKcEEPcT_S3_RKSaIcESt20forward_iterator_tag
   fun:_ZNSsC1EPKcRKSaIcE
   fun:_GLOBAL__sub_I_RubberSheet.cpp
   fun:call_init.part.0
   fun:_dl_init
   obj:/lib/x86_64-linux-gnu/ld-2.15.so
   obj:*
   obj:*
   obj:*
}
{
   <insert_a_suppression_name_here>
   Memcheck:Leak
   fun:_Znwm
   fun:_ZNSs4_Rep9_S_createEmmRKSaIcE
   fun:_ZNSs12_S_constructIPKcEEPcT_S3_RKSaIcESt20forward_iterator_tag
   fun:_ZNSsC1EPKcRKSaIcE
   fun:_GLOBAL__sub_I_ReportMissingElementsVisitor.cpp
   fun:call_init.part.0
   fun:_dl_init
   obj:/lib/x86_64-linux-gnu/ld-2.15.so
   obj:*
   obj:*
   obj:*
}
{
   <insert_a_suppression_name_here>
   Memcheck:Leak
   fun:_Znwm
   fun:_ZNSs4_Rep9_S_createEmmRKSaIcE
   fun:_ZNSs12_S_constructIPKcEEPcT_S3_RKSaIcESt20forward_iterator_tag
   fun:_ZNSsC1EPKcRKSaIcE
   fun:_GLOBAL__sub_I_KeepBuildingsVisitor.cpp
   fun:call_init.part.0
   fun:_dl_init
   obj:/lib/x86_64-linux-gnu/ld-2.15.so
   obj:*
   obj:*
   obj:*
}
{
   <insert_a_suppression_name_here>
   Memcheck:Leak
   fun:_Znwm
   fun:_ZNSs4_Rep9_S_createEmmRKSaIcE
   fun:_ZNSs12_S_constructIPKcEEPcT_S3_RKSaIcESt20forward_iterator_tag
   fun:_ZNSsC1EPKcRKSaIcE
   fun:_GLOBAL__sub_I_LengthOfWaysVisitor.cpp
   fun:call_init.part.0
   fun:_dl_init
   obj:/lib/x86_64-linux-gnu/ld-2.15.so
   obj:*
   obj:*
   obj:*
}
{
   <insert_a_suppression_name_here>
   Memcheck:Leak
   fun:_Znwm
   fun:_ZNSs4_Rep9_S_createEmmRKSaIcE
   fun:_ZNSs12_S_constructIPKcEEPcT_S3_RKSaIcESt20forward_iterator_tag
   fun:_ZNSsC1EPKcRKSaIcE
   fun:_GLOBAL__sub_I_AddRef1Visitor.cpp
   fun:call_init.part.0
   fun:_dl_init
   obj:/lib/x86_64-linux-gnu/ld-2.15.so
   obj:*
   obj:*
   obj:*
}
{
   <insert_a_suppression_name_here>
   Memcheck:Leak
   fun:_Znwm
   fun:_ZNSs4_Rep9_S_createEmmRKSaIcE
   fun:_ZNSs12_S_constructIPKcEEPcT_S3_RKSaIcESt20forward_iterator_tag
   fun:_ZNSsC1EPKcRKSaIcE
   fun:_GLOBAL__sub_I_AddRef1Visitor.cpp
   fun:call_init.part.0
   fun:_dl_init
   obj:/lib/x86_64-linux-gnu/ld-2.15.so
   obj:*
   obj:*
   obj:*
}
{
   <insert_a_suppression_name_here>
   Memcheck:Leak
   fun:_Znwm
   fun:_ZNSs4_Rep9_S_createEmmRKSaIcE
   fun:_ZNSs12_S_constructIPKcEEPcT_S3_RKSaIcESt20forward_iterator_tag
   fun:_ZNSsC1EPKcRKSaIcE
   fun:_GLOBAL__sub_I_AddRef2Visitor.cpp
   fun:call_init.part.0
   fun:_dl_init
   obj:/lib/x86_64-linux-gnu/ld-2.15.so
   obj:*
   obj:*
   obj:*
}
{
   <insert_a_suppression_name_here>
   Memcheck:Leak
   fun:_Znwm
   fun:_ZNSs4_Rep9_S_createEmmRKSaIcE
   fun:_ZNSs12_S_constructIPKcEEPcT_S3_RKSaIcESt20forward_iterator_tag
   fun:_ZNSsC1EPKcRKSaIcE
   fun:_GLOBAL__sub_I_AddRef2Visitor.cpp
   fun:call_init.part.0
   fun:_dl_init
   obj:/lib/x86_64-linux-gnu/ld-2.15.so
   obj:*
   obj:*
   obj:*
}
{
   <insert_a_suppression_name_here>
   Memcheck:Leak
   fun:_Znwm
   fun:_ZNSs4_Rep9_S_createEmmRKSaIcE
   fun:_ZNSs12_S_constructIPKcEEPcT_S3_RKSaIcESt20forward_iterator_tag
   fun:_ZNSsC1EPKcRKSaIcE
   fun:_GLOBAL__sub_I_RubberSheetCmd.cpp
   fun:call_init.part.0
   fun:_dl_init
   obj:/lib/x86_64-linux-gnu/ld-2.15.so
   obj:*
   obj:*
   obj:*
}
{
   <insert_a_suppression_name_here>
   Memcheck:Leak
   fun:_Znwm
   fun:_ZNSs4_Rep9_S_createEmmRKSaIcE
   fun:_ZNSs12_S_constructIPKcEEPcT_S3_RKSaIcESt20forward_iterator_tag
   fun:_ZNSsC1EPKcRKSaIcE
   fun:_GLOBAL__sub_I_RemoveUnknown1Visitor.cpp
   fun:call_init.part.0
   fun:_dl_init
   obj:/lib/x86_64-linux-gnu/ld-2.15.so
   obj:*
   obj:*
   obj:*
}
{
   <insert_a_suppression_name_here>
   Memcheck:Leak
   fun:_Znwm
   fun:_ZNSs4_Rep9_S_createEmmRKSaIcE
   fun:_ZNSs12_S_constructIPKcEEPcT_S3_RKSaIcESt20forward_iterator_tag
   fun:_ZNSsC1EPKcRKSaIcE
   fun:_GLOBAL__sub_I_RemoveRandomElementVisitor.cpp
   fun:call_init.part.0
   fun:_dl_init
   obj:/lib/x86_64-linux-gnu/ld-2.15.so
   obj:*
   obj:*
   obj:*
}
{
   <insert_a_suppression_name_here>
   Memcheck:Leak
   fun:_Znwm
   fun:_ZNSs4_Rep9_S_createEmmRKSaIcE
   fun:_ZNSs12_S_constructIPKcEEPcT_S3_RKSaIcESt20forward_iterator_tag
   fun:_ZNSsC1EPKcRKSaIcE
   fun:_GLOBAL__sub_I_PertyNameVisitor.cpp
   fun:call_init.part.0
   fun:_dl_init
   obj:/lib/x86_64-linux-gnu/ld-2.15.so
   obj:*
   obj:*
   obj:*
}
{
   <insert_a_suppression_name_here>
   Memcheck:Leak
   fun:_Znwm
   fun:_ZNSs4_Rep9_S_createEmmRKSaIcE
   fun:_ZNSs12_S_constructIPKcEEPcT_S3_RKSaIcESt20forward_iterator_tag
   fun:_ZNSsC1EPKcRKSaIcE
   fun:_GLOBAL__sub_I_PertyRemoveTagVisitor.cpp
   fun:call_init.part.0
   fun:_dl_init
   obj:/lib/x86_64-linux-gnu/ld-2.15.so
   obj:*
   obj:*
   obj:*
}
{
   <insert_a_suppression_name_here>
   Memcheck:Leak
   fun:_Znwm
   fun:_ZNSs4_Rep9_S_createEmmRKSaIcE
   fun:_ZNSs12_S_constructIPKcEEPcT_S3_RKSaIcESt20forward_iterator_tag
   fun:_ZNSsC1EPKcRKSaIcE
   fun:_GLOBAL__sub_I_PbfRecordReader.cpp
   fun:call_init.part.0
   fun:_dl_init
   fun:dl_open_worker
   fun:_dl_catch_error
   fun:_dl_open
   fun:dlopen_doit
   fun:_dl_catch_error
}
{
   <insert_a_suppression_name_here>
   Memcheck:Leak
   fun:_Znwm
   fun:_ZNSs4_Rep9_S_createEmmRKSaIcE
   fun:_ZNSs12_S_constructIPKcEEPcT_S3_RKSaIcESt20forward_iterator_tag
   fun:_ZNSsC1EPKcRKSaIcE
   fun:_GLOBAL__sub_I_PbfRecordWriter.cpp
   fun:call_init.part.0
   fun:_dl_init
   fun:dl_open_worker
   fun:_dl_catch_error
   fun:_dl_open
   fun:dlopen_doit
   fun:_dl_catch_error
}
{
   <insert_a_suppression_name_here>
   Memcheck:Leak
   fun:_Znwm
   fun:_ZNSs4_Rep9_S_createEmmRKSaIcE
   fun:_ZNSs12_S_constructIPKcEEPcT_S3_RKSaIcESt20forward_iterator_tag
   fun:_ZNSsC1EPKcRKSaIcE
   fun:_GLOBAL__sub_I_WayJoin1Reducer.cpp
   fun:call_init.part.0
   fun:_dl_init
   fun:dl_open_worker
   fun:_dl_catch_error
   fun:_dl_open
   fun:dlopen_doit
   fun:_dl_catch_error
}
{
   <insert_a_suppression_name_here>
   Memcheck:Leak
   fun:_Znwm
   fun:_ZNSs4_Rep9_S_createEmmRKSaIcE
   fun:_ZNSs12_S_constructIPKcEEPcT_S3_RKSaIcESt20forward_iterator_tag
   fun:_ZNSsC1EPKcRKSaIcE
   fun:_GLOBAL__sub_I_WayJoin2Reducer.cpp
   fun:call_init.part.0
   fun:_dl_init
   fun:dl_open_worker
   fun:_dl_catch_error
   fun:_dl_open
   fun:dlopen_doit
   fun:_dl_catch_error
}
{
   <insert_a_suppression_name_here>
   Memcheck:Leak
   fun:_Znwm
   fun:_ZNSs4_Rep9_S_createEmmRKSaIcE
   fun:_ZNSs12_S_constructIPKcEEPcT_S3_RKSaIcESt20forward_iterator_tag
   fun:_ZNSsC1EPKcRKSaIcE
   fun:_GLOBAL__sub_I_ConflateReducer.cpp
   fun:call_init.part.0
   fun:_dl_init
   fun:dl_open_worker
   fun:_dl_catch_error
   fun:_dl_open
   fun:dlopen_doit
   fun:_dl_catch_error
}
{
   <insert_a_suppression_name_here>
   Memcheck:Leak
   fun:_Znwm
   fun:_ZNSs4_Rep9_S_createEmmRKSaIcE
   fun:_ZNSs12_S_constructIPKcEEPcT_S3_RKSaIcESt20forward_iterator_tag
   fun:_ZNSsC1EPKcRKSaIcE
   fun:_GLOBAL__sub_I_PertyOp.cpp
   fun:call_init.part.0
   fun:_dl_init
   obj:/lib/x86_64-linux-gnu/ld-2.15.so
   obj:*
   obj:*
   obj:*
}
{
   <insert_a_suppression_name_here>
   Memcheck:Leak
   fun:_Znwm
   fun:_ZNSs4_Rep9_S_createEmmRKSaIcE
   fun:_ZNSs12_S_constructIPKcEEPcT_S3_RKSaIcESt20forward_iterator_tag
   fun:_ZNSsC1EPKcRKSaIcE
   fun:_GLOBAL__sub_I_SuperfluousNodeRemover.cpp
   fun:call_init.part.0
   fun:_dl_init
   obj:/lib/x86_64-linux-gnu/ld-2.15.so
   obj:*
   obj:*
   obj:*
}
{
   <insert_a_suppression_name_here>
   Memcheck:Leak
   fun:_Znwm
   fun:_ZNSs4_Rep9_S_createEmmRKSaIcE
   fun:_ZNSs12_S_constructIPKcEEPcT_S3_RKSaIcESt20forward_iterator_tag
   fun:_ZNSsC1EPKcRKSaIcE
   fun:_GLOBAL__sub_I_MapCropper.cpp
   fun:call_init.part.0
   fun:_dl_init
   obj:/lib/x86_64-linux-gnu/ld-2.15.so
   obj:*
   obj:*
   obj:*
}
{
   <insert_a_suppression_name_here>
   Memcheck:Leak
   fun:_Znwm
   fun:_ZNSs4_Rep9_S_createEmmRKSaIcE
   fun:_ZNSs12_S_constructIPKcEEPcT_S3_RKSaIcESt20forward_iterator_tag
   fun:_ZNSsC1EPKcRKSaIcE
   fun:_GLOBAL__sub_I_ShapefileWriter.cpp
   fun:call_init.part.0
   fun:_dl_init
   obj:/lib/x86_64-linux-gnu/ld-2.15.so
   obj:*
   obj:*
   obj:*
}
{
   <insert_a_suppression_name_here>
   Memcheck:Leak
   fun:_Znwm
   fun:_ZNSs4_Rep9_S_createEmmRKSaIcE
   fun:_ZNSs12_S_constructIPKcEEPcT_S3_RKSaIcESt20forward_iterator_tag
   fun:_ZNSsC1EPKcRKSaIcE
   fun:_GLOBAL__sub_I_MergeNearbyNodes.cpp
   fun:call_init.part.0
   fun:_dl_init
   obj:/lib/x86_64-linux-gnu/ld-2.15.so
   obj:*
   obj:*
   obj:*
}
{
   <insert_a_suppression_name_here>
   Memcheck:Leak
   fun:_Znwm
   fun:_ZNSs4_Rep9_S_createEmmRKSaIcE
   fun:_ZNSs12_S_constructIPKcEEPcT_S3_RKSaIcESt20forward_iterator_tag
   fun:_ZNSsC1EPKcRKSaIcE
   fun:_GLOBAL__sub_I_PertyCompareCmd.cpp
   fun:call_init.part.0
   fun:_dl_init
   obj:/lib/x86_64-linux-gnu/ld-2.15.so
   obj:*
   obj:*
   obj:*
}
{
   <insert_a_suppression_name_here>
   Memcheck:Leak
   fun:_Znwm
   fun:_ZNSs4_Rep9_S_createEmmRKSaIcE
   fun:_ZNSs12_S_constructIPKcEEPcT_S3_RKSaIcESt20forward_iterator_tag
   fun:_ZNSsC1EPKcRKSaIcE
   fun:_GLOBAL__sub_I_MapCleaner.cpp
   fun:call_init.part.0
   fun:_dl_init
   obj:/lib/x86_64-linux-gnu/ld-2.15.so
   obj:*
   obj:*
   obj:*
}
{
   <insert_a_suppression_name_here>
   Memcheck:Leak
   fun:_Znwm
   fun:_ZNSs4_Rep9_S_createEmmRKSaIcE
   fun:_ZNSs12_S_constructIPKcEEPcT_S3_RKSaIcESt20forward_iterator_tag
   fun:_ZNSsC1EPKcRKSaIcE
   fun:_GLOBAL__sub_I_RubberSheet.cpp
   fun:call_init.part.0
   fun:_dl_init
   obj:/lib/x86_64-linux-gnu/ld-2.15.so
   obj:*
   obj:*
   obj:*
}
{
   <insert_a_suppression_name_here>
   Memcheck:Leak
   fun:_Znwm
   fun:_ZNSs4_Rep9_S_createEmmRKSaIcE
   fun:_ZNSs12_S_constructIPKcEEPcT_S3_RKSaIcESt20forward_iterator_tag
   fun:_ZNSsC1EPKcRKSaIcE
   fun:_GLOBAL__sub_I_CookieCutterCmd.cpp
   fun:call_init.part.0
   fun:_dl_init
   obj:/lib/x86_64-linux-gnu/ld-2.15.so
   obj:*
   obj:*
   obj:*
}
{
   <insert_a_suppression_name_here>
   Memcheck:Leak
   fun:_Znwm
   fun:_ZNSs4_Rep9_S_createEmmRKSaIcE
   fun:_ZNSs12_S_constructIPKcEEPcT_S3_RKSaIcESt20forward_iterator_tag
   fun:_ZNSsC1EPKcRKSaIcE
   fun:_GLOBAL__sub_I_OpList.cpp
   fun:call_init.part.0
   fun:_dl_init
   obj:/lib/x86_64-linux-gnu/ld-2.15.so
   obj:*
   obj:*
   obj:*
}
{
   <insert_a_suppression_name_here>
   Memcheck:Leak
   fun:_Znwm
   fun:_ZNSs4_Rep9_S_createEmmRKSaIcE
   fun:_ZNSs12_S_constructIPKcEEPcT_S3_RKSaIcESt20forward_iterator_tag
   fun:_ZNSsC1EPKcRKSaIcE
   fun:_GLOBAL__sub_I_ReprojectToPlanarOp.cpp
   fun:call_init.part.0
   fun:_dl_init
   obj:/lib/x86_64-linux-gnu/ld-2.15.so
   obj:*
   obj:*
   obj:*
}
{
   <insert_a_suppression_name_here>
   Memcheck:Leak
   fun:_Znwm
   fun:_ZNSs4_Rep9_S_createEmmRKSaIcE
   fun:_ZNSs12_S_constructIPKcEEPcT_S3_RKSaIcESt20forward_iterator_tag
   fun:_ZNSsC1EPKcRKSaIcE
   fun:_GLOBAL__sub_I_ReprojectToGeographicOp.cpp
   fun:call_init.part.0
   fun:_dl_init
   obj:/lib/x86_64-linux-gnu/ld-2.15.so
   obj:*
   obj:*
   obj:*
}
{
   <insert_a_suppression_name_here>
   Memcheck:Leak
   fun:_Znwm
   fun:_ZNSs4_Rep9_S_createEmmRKSaIcE
   fun:_ZNSs12_S_constructIPKcEEPcT_S3_RKSaIcESt20forward_iterator_tag
   fun:_ZNSsC1EPKcRKSaIcE
   fun:_GLOBAL__sub_I_WaySplitterOp.cpp
   fun:call_init.part.0
   fun:_dl_init
   obj:/lib/x86_64-linux-gnu/ld-2.15.so
   obj:*
   obj:*
   obj:*
}
{
   <insert_a_suppression_name_here>
   Memcheck:Leak
   fun:_Znwm
   fun:_ZNSs4_Rep9_S_createEmmRKSaIcE
   fun:_ZNSs12_S_constructIPKcEEPcT_S3_RKSaIcESt20forward_iterator_tag
   fun:_ZNSsC1EPKcRKSaIcE
   fun:_GLOBAL__sub_I_BuildingPartMergeOp.cpp
   fun:call_init.part.0
   fun:_dl_init
   obj:/lib/x86_64-linux-gnu/ld-2.15.so
   obj:*
   obj:*
   obj:*
}
{
   <insert_a_suppression_name_here>
   Memcheck:Leak
   fun:_Znwm
   fun:_ZNSs4_Rep9_S_createEmmRKSaIcE
   fun:_ZNSs12_S_constructIPKcEEPcT_S3_RKSaIcESt20forward_iterator_tag
   fun:_ZNSsC1EPKcRKSaIcE
   fun:_GLOBAL__sub_I_NamedOp.cpp
   fun:call_init.part.0
   fun:_dl_init
   obj:/lib/x86_64-linux-gnu/ld-2.15.so
   obj:*
   obj:*
   obj:*
}
{
   <insert_a_suppression_name_here>
   Memcheck:Leak
   fun:_Znwm
   fun:_ZNSs4_Rep9_S_createEmmRKSaIcE
   fun:_ZNSs12_S_constructIPKcEEPcT_S3_RKSaIcESt20forward_iterator_tag
   fun:_ZNSsC1EPKcRKSaIcE
   fun:_GLOBAL__sub_I_UnifyingConflator.cpp
   fun:call_init.part.0
   fun:_dl_init
   obj:/lib/x86_64-linux-gnu/ld-2.15.so
   obj:*
   obj:*
   obj:*
}
{
   <insert_a_suppression_name_here>
   Memcheck:Leak
   fun:_Znwm
   fun:_ZNSs4_Rep9_S_createEmmRKSaIcE
   fun:_ZNSs12_S_constructIPKcEEPcT_S3_RKSaIcESt20forward_iterator_tag
   fun:_ZNSsC1EPKcRKSaIcE
   fun:_GLOBAL__sub_I_ScoreMatchesCmd.cpp
   fun:call_init.part.0
   fun:_dl_init
   obj:/lib/x86_64-linux-gnu/ld-2.15.so
   obj:*
   obj:*
   obj:*
}
{
   <insert_a_suppression_name_here>
   Memcheck:Leak
   fun:_Znwm
   fun:_ZNSs4_Rep9_S_createEmmRKSaIcE
   fun:_ZNSs12_S_constructIPKcEEPcT_S3_RKSaIcESt20forward_iterator_tag
   fun:_ZNSsC1EPKcRKSaIcE
   fun:_GLOBAL__sub_I_PointsToTracksOp.cpp
   fun:call_init.part.0
   fun:_dl_init
   obj:/lib/x86_64-linux-gnu/ld-2.15.so
   obj:*
   obj:*
   obj:*
}
{
   <insert_a_suppression_name_here>
   Memcheck:Leak
   fun:_Znwm
   fun:_ZNSs4_Rep9_S_createEmmRKSaIcE
   fun:_ZNSs12_S_constructIPKcEEPcT_S3_RKSaIcESt20forward_iterator_tag
   fun:_ZNSsC1EPKcRKSaIcE
   fun:_GLOBAL__sub_I_FindIntersectionsOp.cpp
   fun:call_init.part.0
   fun:_dl_init
   obj:/lib/x86_64-linux-gnu/ld-2.15.so
   obj:*
   obj:*
   obj:*
}
{
   <insert_a_suppression_name_here>
   Memcheck:Leak
   fun:_Znwm
   fun:_ZNSs4_Rep9_S_createEmmRKSaIcE
   fun:_ZNSs12_S_constructIPKcEEPcT_S3_RKSaIcESt20forward_iterator_tag
   fun:_ZNSsC1EPKcRKSaIcE
   fun:_GLOBAL__sub_I_PertyDuplicatePoiOp.cpp
   fun:call_init.part.0
   fun:_dl_init
   obj:/lib/x86_64-linux-gnu/ld-2.15.so
   obj:*
   obj:*
   obj:*
}
{
   <insert_a_suppression_name_here>
   Memcheck:Leak
   fun:_Znwm
   fun:_ZNSs4_Rep9_S_createEmmRKSaIcE
   fun:_ZNSs12_S_constructIPKcEEPcT_S3_RKSaIcESt20forward_iterator_tag
   fun:_ZNSsC1EPKcRKSaIcE
   fun:_GLOBAL__sub_I_TranslationOp.cpp
   fun:call_init.part.0
   fun:_dl_init
   obj:/lib/x86_64-linux-gnu/ld-2.15.so
   obj:*
   obj:*
   obj:*
}
{
   <insert_a_suppression_name_here>
   Memcheck:Leak
   fun:_Znwm
   fun:_ZNSs4_Rep9_S_createEmmRKSaIcE
   fun:_ZNSs12_S_constructIPKcEEPcT_S3_RKSaIcESt20forward_iterator_tag
   fun:_ZNSsC1EPKcRKSaIcE
   fun:_GLOBAL__sub_I_BigPertyOp.cpp
   fun:call_init.part.0
   fun:_dl_init
   obj:/lib/x86_64-linux-gnu/ld-2.15.so
   obj:*
   obj:*
   obj:*
}
{
   <insert_a_suppression_name_here>
   Memcheck:Leak
   fun:_Znwm
   fun:_ZNSs4_Rep9_S_createEmmRKSaIcE
   fun:_ZNSs12_S_constructIPKcEEPcT_S3_RKSaIcESt20forward_iterator_tag
   fun:_ZNSsC1EPKcRKSaIcE
   fun:_GLOBAL__sub_I_PaintNodesMapper.cpp
   fun:call_init.part.0
   fun:_dl_init
   fun:dl_open_worker
   fun:_dl_catch_error
   fun:_dl_open
   fun:dlopen_doit
   fun:_dl_catch_error
}
{
   <insert_a_suppression_name_here>
   Memcheck:Leak
   fun:_Znwm
   fun:_ZNSs4_Rep9_S_createEmmRKSaIcE
   fun:_ZNSs12_S_constructIPKcEEPcT_S3_RKSaIcESt20forward_iterator_tag
   fun:_ZNSsC1EPKcRKSaIcE
   fun:_GLOBAL__sub_I_BigMergeNodesCmd.cpp
   fun:call_init.part.0
   fun:_dl_init
   fun:dl_open_worker
   fun:_dl_catch_error
   fun:_dl_open
   fun:dlopen_doit
   fun:_dl_catch_error
}
{
   <insert_a_suppression_name_here>
   Memcheck:Leak
   fun:_Znwm
   fun:_ZNSs4_Rep9_S_createEmmRKSaIcE
   fun:_ZNSs12_S_constructIPKcEEPcT_S3_RKSaIcESt20forward_iterator_tag
   fun:_ZNSsC1EPKcRKSaIcE
   fun:_GLOBAL__sub_I_MergeNearbyNodes.cpp
   fun:call_init.part.0
   fun:_dl_init
   obj:/lib/x86_64-linux-gnu/ld-2.15.so
   obj:*
   obj:*
   obj:*
}
{
   <insert_a_suppression_name_here>
   Memcheck:Leak
   fun:_Znwm
   fun:_ZNSs4_Rep9_S_createEmmRKSaIcE
   fun:_ZNSs12_S_constructIPKcEEPcT_S3_RKSaIcESt20forward_iterator_tag
   fun:_ZNSsC1EPKcRKSaIcE
   fun:_GLOBAL__sub_I_JavaScriptTranslator.cpp
   fun:call_init.part.0
   fun:_dl_init
   obj:/lib/x86_64-linux-gnu/ld-2.15.so
   obj:*
   obj:*
   obj:*
}
{
   <insert_a_suppression_name_here>
   Memcheck:Leak
   fun:_Znwm
   fun:_ZNSs4_Rep9_S_createEmmRKSaIcE
   fun:_ZNSs12_S_constructIPKcEEPcT_S3_RKSaIcESt20forward_iterator_tag
   fun:_ZNSsC1EPKcRKSaIcE
   fun:_GLOBAL__sub_I_UnionPolygonsCmd.cpp
   fun:call_init.part.0
   fun:_dl_init
   obj:/lib/x86_64-linux-gnu/ld-2.15.so
   obj:*
   obj:*
   obj:*
}
{
   <insert_a_suppression_name_here>
   Memcheck:Leak
   fun:_Znwm
   fun:_ZNSs4_Rep9_S_createEmmRKSaIcE
   fun:_ZNSs12_S_constructIPKcEEPcT_S3_RKSaIcESt20forward_iterator_tag
   fun:_ZNSsC1EPKcRKSaIcE
   fun:_GLOBAL__sub_I_CentroidDistanceExtractor.cpp
   fun:call_init.part.0
   fun:_dl_init
   obj:/lib/x86_64-linux-gnu/ld-2.15.so
   obj:*
   obj:*
   obj:*
}
{
   <insert_a_suppression_name_here>
   Memcheck:Leak
   fun:_Znwm
   fun:_ZNSs4_Rep9_S_createEmmRKSaIcE
   fun:_ZNSs12_S_constructIPKcEEPcT_S3_RKSaIcESt20forward_iterator_tag
   fun:_ZNSsC1EPKcRKSaIcE
   fun:_GLOBAL__sub_I_HausdorffDistanceExtractor.cpp
   fun:call_init.part.0
   fun:_dl_init
   obj:/lib/x86_64-linux-gnu/ld-2.15.so
   obj:*
   obj:*
   obj:*
}
{
   <insert_a_suppression_name_here>
   Memcheck:Leak
   fun:_Znwm
   fun:_ZNSs4_Rep9_S_createEmmRKSaIcE
   fun:_ZNSs12_S_constructIPKcEEPcT_S3_RKSaIcESt20forward_iterator_tag
   fun:_ZNSsC1EPKcRKSaIcE
   fun:_GLOBAL__sub_I_OverlapExtractor.cpp
   fun:call_init.part.0
   fun:_dl_init
   obj:/lib/x86_64-linux-gnu/ld-2.15.so
   obj:*
   obj:*
   obj:*
}
{
   <insert_a_suppression_name_here>
   Memcheck:Leak
   fun:_Znwm
   fun:_ZNSs4_Rep9_S_createEmmRKSaIcE
   fun:_ZNSs12_S_constructIPKcEEPcT_S3_RKSaIcESt20forward_iterator_tag
   fun:_ZNSsC1EPKcRKSaIcE
   fun:_GLOBAL__sub_I_OverlapExtractor.cpp
   fun:call_init.part.0
   fun:_dl_init
   obj:/lib/x86_64-linux-gnu/ld-2.15.so
   obj:*
   obj:*
   obj:*
}
{
   <insert_a_suppression_name_here>
   Memcheck:Leak
   fun:_Znwm
   fun:_ZNSs4_Rep9_S_createEmmRKSaIcE
   fun:_ZNSs12_S_constructIPKcEEPcT_S3_RKSaIcESt20forward_iterator_tag
   fun:_ZNSsC1EPKcRKSaIcE
   fun:_GLOBAL__sub_I_CompactnessExtractor.cpp
   fun:call_init.part.0
   fun:_dl_init
   obj:/lib/x86_64-linux-gnu/ld-2.15.so
   obj:*
   obj:*
   obj:*
}
{
   <insert_a_suppression_name_here>
   Memcheck:Leak
   fun:_Znwm
   fun:_ZNSs4_Rep9_S_createEmmRKSaIcE
   fun:_ZNSs12_S_constructIPKcEEPcT_S3_RKSaIcESt20forward_iterator_tag
   fun:_ZNSsC1EPKcRKSaIcE
   fun:_GLOBAL__sub_I_AngleHistogramExtractor.cpp
   fun:call_init.part.0
   fun:_dl_init
   obj:/lib/x86_64-linux-gnu/ld-2.15.so
   obj:*
   obj:*
   obj:*
}
{
   <insert_a_suppression_name_here>
   Memcheck:Leak
   fun:_Znwm
   fun:_ZNSs4_Rep9_S_createEmmRKSaIcE
   fun:_ZNSs12_S_constructIPKcEEPcT_S3_RKSaIcESt20forward_iterator_tag
   fun:_ZNSsC1EPKcRKSaIcE
   fun:_GLOBAL__sub_I_NameExtractor.cpp
   fun:call_init.part.0
   fun:_dl_init
   obj:/lib/x86_64-linux-gnu/ld-2.15.so
   obj:*
   obj:*
   obj:*
}
{
   <insert_a_suppression_name_here>
   Memcheck:Leak
   fun:_Znwm
   fun:_ZNSs4_Rep9_S_createEmmRKSaIcE
   fun:_ZNSs12_S_constructIPKcEEPcT_S3_RKSaIcESt20forward_iterator_tag
   fun:_ZNSsC1EPKcRKSaIcE
   fun:_GLOBAL__sub_I_BufferedOverlapExtractor.cpp
   fun:call_init.part.0
   fun:_dl_init
   obj:/lib/x86_64-linux-gnu/ld-2.15.so
   obj:*
   obj:*
   obj:*
}
{
   <insert_a_suppression_name_here>
   Memcheck:Leak
   fun:_Znwm
   fun:_ZNSs4_Rep9_S_createEmmRKSaIcE
   fun:_ZNSs12_S_constructIPKcEEPcT_S3_RKSaIcESt20forward_iterator_tag
   fun:_ZNSsC1EPKcRKSaIcE
   fun:_GLOBAL__sub_I_SmallerOverlapExtractor.cpp
   fun:call_init.part.0
   fun:_dl_init
   obj:/lib/x86_64-linux-gnu/ld-2.15.so
   obj:*
   obj:*
   obj:*
}
{
   <insert_a_suppression_name_here>
   Memcheck:Leak
   fun:_Znwm
   fun:_ZNSs4_Rep9_S_createEmmRKSaIcE
   fun:_ZNSs12_S_constructIPKcEEPcT_S3_RKSaIcESt20forward_iterator_tag
   fun:_ZNSsC1EPKcRKSaIcE
   fun:_GLOBAL__sub_I_EdgeDistanceExtractor.cpp
   fun:call_init.part.0
   fun:_dl_init
   obj:/lib/x86_64-linux-gnu/ld-2.15.so
   obj:*
   obj:*
   obj:*
}
{
   <insert_a_suppression_name_here>
   Memcheck:Leak
   fun:_Znwm
   fun:_ZNSs4_Rep9_S_createEmmRKSaIcE
   fun:_ZNSs12_S_constructIPKcEEPcT_S3_RKSaIcESt20forward_iterator_tag
   fun:_ZNSsC1EPKcRKSaIcE
   fun:_GLOBAL__sub_I_PointsToTracksOp.cpp
   fun:call_init.part.0
   fun:_dl_init
   obj:/lib/x86_64-linux-gnu/ld-2.15.so
   obj:*
   obj:*
   obj:*
}
{
   <insert_a_suppression_name_here>
   Memcheck:Leak
   fun:_Znwm
   fun:_ZNSs4_Rep9_S_createEmmRKSaIcE
   fun:_ZNSs12_S_constructIPKcEEPcT_S3_RKSaIcESt20forward_iterator_tag
   fun:_ZNSsC1EPKcRKSaIcE
   fun:_GLOBAL__sub_I_PertyNameVisitor.cpp
   fun:call_init.part.0
   fun:_dl_init
   obj:/lib/x86_64-linux-gnu/ld-2.15.so
   obj:*
   obj:*
   obj:*
}
{
   <insert_a_suppression_name_here>
   Memcheck:Leak
   fun:_Znwm
   fun:_ZNSs4_Rep9_S_createEmmRKSaIcE
   fun:_ZNSs12_S_constructIPKcEEPcT_S3_RKSaIcESt20forward_iterator_tag
   fun:_ZNSsC1EPKcRKSaIcE
   fun:_GLOBAL__sub_I_PythonTranslator.cpp
   fun:call_init.part.0
   fun:_dl_init
   obj:/lib/x86_64-linux-gnu/ld-2.15.so
   obj:*
   obj:*
   obj:*
}
{
   <insert_a_suppression_name_here>
   Memcheck:Leak
   fun:_Znwm
   fun:_ZNSs4_Rep9_S_createEmmRKSaIcE
   fun:_ZNSs12_S_constructIPKcEEPcT_S3_RKSaIcESt20forward_iterator_tag
   fun:_ZNSsC1EPKcRKSaIcE
   fun:_GLOBAL__sub_I_PythonTranslator.cpp
   fun:call_init.part.0
   fun:_dl_init
   obj:/lib/x86_64-linux-gnu/ld-2.15.so
   obj:*
   obj:*
   obj:*
}
{
   <insert_a_suppression_name_here>
   Memcheck:Leak
   fun:_Znwm
   fun:_ZNSs4_Rep9_S_createEmmRKSaIcE
   fun:_ZNSs12_S_constructIPKcEEPcT_S3_RKSaIcESt20forward_iterator_tag
   fun:_ZNSsC1EPKcRKSaIcE
   fun:_GLOBAL__sub_I_ServicesDbWriter.cpp
   fun:call_init.part.0
   fun:_dl_init
   obj:/lib/x86_64-linux-gnu/ld-2.15.so
   obj:*
   obj:*
   obj:*
}
{
   <insert_a_suppression_name_here>
   Memcheck:Leak
   fun:_Znwm
   fun:_ZNSs4_Rep9_S_createEmmRKSaIcE
   fun:_ZNSs12_S_constructIPKcEEPcT_S3_RKSaIcESt20forward_iterator_tag
   fun:_ZNSsC1EPKcRKSaIcE
   fun:_GLOBAL__sub_I_PaintNodesReducer.cpp
   fun:call_init.part.0
   fun:_dl_init
   fun:dl_open_worker
   fun:_dl_catch_error
   fun:_dl_open
   fun:dlopen_doit
   fun:_dl_catch_error
}
{
   <insert_a_suppression_name_here>
   Memcheck:Leak
   fun:_Znwm
   fun:_ZNSs4_Rep9_S_createEmmRKSaIcE
   fun:_ZNSs12_S_constructIPKcEEPcT_S3_RKSaIcESt20forward_iterator_tag
   fun:_ZNSsC1EPKcRKSaIcE
   fun:_GLOBAL__sub_I_UnifyingConflator.cpp
   fun:call_init.part.0
   fun:_dl_init
   obj:/lib/x86_64-linux-gnu/ld-2.15.so
   obj:*
   obj:*
   obj:*
}
{
   <insert_a_suppression_name_here>
   Memcheck:Leak
   fun:_Znwm
   fun:_ZNSs4_Rep9_S_createEmmRKSaIcE
   fun:_ZNSs12_S_constructIPKcEEPcT_S3_RKSaIcESt20forward_iterator_tag
   fun:_ZNSsC1EPKcRKSaIcE
   fun:_GLOBAL__sub_I_WayJoin2InputSplit.cpp
   fun:call_init.part.0
   fun:_dl_init
   fun:dl_open_worker
   fun:_dl_catch_error
   fun:_dl_open
   fun:dlopen_doit
   fun:_dl_catch_error
}
{
   <insert_a_suppression_name_here>
   Memcheck:Leak
   fun:_Znwm
   fun:_ZNSs4_Rep9_S_createEmmRKSaIcE
   fun:_ZNSs12_S_constructIPKcEEPcT_S3_RKSaIcESt20forward_iterator_tag
   fun:_ZNSsC1EPKcRKSaIcE
   fun:_GLOBAL__sub_I_BigCookieCutterCmd.cpp
   fun:call_init.part.0
   fun:_dl_init
   fun:dl_open_worker
   fun:_dl_catch_error
   fun:_dl_open
   fun:dlopen_doit
   fun:_dl_catch_error
}
{
   <insert_a_suppression_name_here>
   Memcheck:Leak
   fun:_Znwm
   fun:_ZNSs4_Rep9_S_createEmmRKSaIcE
   fun:_ZNSs12_S_constructIPKcEEPcT_S3_RKSaIcESt20forward_iterator_tag
   fun:_ZNSsC1EPKcRKSaIcE
   fun:_GLOBAL__sub_I_AddOsmPbfHeaderCmd.cpp
   fun:call_init.part.0
   fun:_dl_init
   obj:/lib/x86_64-linux-gnu/ld-2.15.so
   obj:*
   obj:*
   obj:*
}
{
   <insert_a_suppression_name_here>
   Memcheck:Leak
   fun:_Znwm
   fun:_ZNSs4_Rep9_S_createEmmRKSaIcE
   fun:_ZNSs12_S_constructIPKcEEPcT_S3_RKSaIcESt20forward_iterator_tag
   fun:_ZNSsC1EPKcRKSaIcE
   fun:_GLOBAL__sub_I_WayJoin2InputFormat.cpp
   fun:call_init.part.0
   fun:_dl_init
   fun:dl_open_worker
   fun:_dl_catch_error
   fun:_dl_open
   fun:dlopen_doit
   fun:_dl_catch_error
}
{
   <insert_a_suppression_name_here>
   Memcheck:Leak
   fun:_Znwm
   fun:_ZNSs4_Rep9_S_createEmmRKSaIcE
   fun:_ZNSs12_S_constructIPKcEEPcT_S3_RKSaIcESt20forward_iterator_tag
   fun:_ZNSsC1EPKcRKSaIcE
   fun:_GLOBAL__sub_I_LevenshteinDistance.cpp
   fun:call_init.part.0
   fun:_dl_init
   obj:/lib/x86_64-linux-gnu/ld-2.15.so
   obj:*
   obj:*
   obj:*
}
{
   <insert_a_suppression_name_here>
   Memcheck:Leak
   fun:_Znwm
   fun:_ZNSs4_Rep9_S_createEmmRKSaIcE
   fun:_ZNSs12_S_constructIPKcEEPcT_S3_RKSaIcESt20forward_iterator_tag
   fun:_ZNSsC1EPKcRKSaIcE
   fun:_GLOBAL__sub_I_RubberSheet.cpp
   fun:call_init.part.0
   fun:_dl_init
   obj:/lib/x86_64-linux-gnu/ld-2.15.so
   obj:*
   obj:*
   obj:*
}
{
   <insert_a_suppression_name_here>
   Memcheck:Leak
   fun:_Znwm
   fun:_ZNSs4_Rep9_S_createEmmRKSaIcE
   fun:_ZNSs12_S_constructIPKcEEPcT_S3_RKSaIcESt20forward_iterator_tag
   fun:_ZNSsC1EPKcRKSaIcE
   fun:_GLOBAL__sub_I_ReprojectToPlanarOp.cpp
   fun:call_init.part.0
   fun:_dl_init
   obj:/lib/x86_64-linux-gnu/ld-2.15.so
   obj:*
   obj:*
   obj:*
}
{
   <insert_a_suppression_name_here>
   Memcheck:Leak
   fun:_Znwm
   fun:_ZNSs4_Rep9_S_createEmmRKSaIcE
   fun:_ZNSs12_S_constructIPKcEEPcT_S3_RKSaIcESt20forward_iterator_tag
   fun:_ZNSsC1EPKcRKSaIcE
   fun:_GLOBAL__sub_I_BuildingPartMergeOp.cpp
   fun:call_init.part.0
   fun:_dl_init
   obj:/lib/x86_64-linux-gnu/ld-2.15.so
   obj:*
   obj:*
   obj:*
}
{
   <insert_a_suppression_name_here>
   Memcheck:Leak
   fun:_Znwm
   fun:_ZNSs4_Rep9_S_createEmmRKSaIcE
   fun:_ZNSs12_S_constructIPKcEEPcT_S3_RKSaIcESt20forward_iterator_tag
   fun:_ZNSsC1EPKcRKSaIcE
   fun:_GLOBAL__sub_I_LengthOfWaysVisitor.cpp
   fun:call_init.part.0
   fun:_dl_init
   obj:/lib/x86_64-linux-gnu/ld-2.15.so
   obj:*
   obj:*
   obj:*
}
{
   <insert_a_suppression_name_here>
   Memcheck:Leak
   fun:_Znwm
   fun:_ZNSs4_Rep9_S_createEmmRKSaIcE
   fun:_ZNSs12_S_constructIPKcEEPcT_S3_RKSaIcESt20forward_iterator_tag
   fun:_ZNSsC1EPKcRKSaIcE
   fun:_GLOBAL__sub_I_ApplyRubberSheetCmd.cpp
   fun:call_init.part.0
   fun:_dl_init
   obj:/lib/x86_64-linux-gnu/ld-2.15.so
   obj:*
   obj:*
   obj:*
}
{
   <insert_a_suppression_name_here>
   Memcheck:Leak
   fun:_Znwm
   fun:_ZNSs4_Rep9_S_createEmmRKSaIcE
   fun:_ZNSs12_S_constructIPKcEEPcT_S3_RKSaIcESt20forward_iterator_tag
   fun:_ZNSsC1EPKcRKSaIcE
   fun:_GLOBAL__sub_I_FindIntersectionsOp.cpp
   fun:call_init.part.0
   fun:_dl_init
   obj:/lib/x86_64-linux-gnu/ld-2.15.so
   obj:*
   obj:*
   obj:*
}
{
   <insert_a_suppression_name_here>
   Memcheck:Leak
   fun:_Znwm
   fun:_ZNSs4_Rep9_S_createEmmRKSaIcE
   fun:_ZNSs12_S_constructIPKcEEPcT_S3_RKSaIcESt20forward_iterator_tag
   fun:_ZNSsC1EPKcRKSaIcE
   fun:_GLOBAL__sub_I_PertyDuplicatePoiOp.cpp
   fun:call_init.part.0
   fun:_dl_init
   obj:/lib/x86_64-linux-gnu/ld-2.15.so
   obj:*
   obj:*
   obj:*
}
{
   <insert_a_suppression_name_here>
   Memcheck:Leak
   fun:_Znwm
   fun:_ZNSs4_Rep9_S_createEmmRKSaIcE
   fun:_ZNSs12_S_constructIPKcEEPcT_S3_RKSaIcESt20forward_iterator_tag
   fun:_ZNSsC1EPKcRKSaIcE
   fun:_GLOBAL__sub_I_CppSeqFileRecordReader.cpp
   fun:call_init.part.0
   fun:_dl_init
   fun:dl_open_worker
   fun:_dl_catch_error
   fun:_dl_open
   fun:dlopen_doit
   fun:_dl_catch_error
}
{
   <insert_a_suppression_name_here>
   Memcheck:Leak
   fun:_Znwm
   fun:_ZNSs4_Rep9_S_createEmmRKSaIcE
   fun:_ZNSs12_S_constructIPKcEEPcT_S3_RKSaIcESt20forward_iterator_tag
   fun:_ZNSsC1EPKcRKSaIcE
   fun:_GLOBAL__sub_I_CppSeqFileRecordWriter.cpp
   fun:call_init.part.0
   fun:_dl_init
   fun:dl_open_worker
   fun:_dl_catch_error
   fun:_dl_open
   fun:dlopen_doit
   fun:_dl_catch_error
}
{
   <insert_a_suppression_name_here>
   Memcheck:Leak
   fun:_Znwm
   fun:_ZNSs4_Rep9_S_createEmmRKSaIcE
   fun:_ZNSs12_S_constructIPKcEEPcT_S3_RKSaIcESt20forward_iterator_tag
   fun:_ZNSsC1EPKcRKSaIcE
   fun:_GLOBAL__sub_I_WayJoin2RecordReader.cpp
   fun:call_init.part.0
   fun:_dl_init
   fun:dl_open_worker
   fun:_dl_catch_error
   fun:_dl_open
   fun:dlopen_doit
   fun:_dl_catch_error
}
{
   <insert_a_suppression_name_here>
   Memcheck:Leak
   fun:_Znwm
   fun:_ZNSs4_Rep9_S_createEmmRKSaIcE
   fun:_ZNSs12_S_constructIPKcEEPcT_S3_RKSaIcESt20forward_iterator_tag
   fun:_ZNSsC1EPKcRKSaIcE
   fun:_GLOBAL__sub_I_JavaScriptTranslator.cpp
   fun:call_init.part.0
   fun:_dl_init
   obj:/lib/x86_64-linux-gnu/ld-2.15.so
   obj:*
   obj:*
   obj:*
}
{
   <insert_a_suppression_name_here>
   Memcheck:Leak
   fun:_Znwm
   fun:_ZNSs4_Rep9_S_createEmmRKSaIcE
   fun:_ZNSs12_S_constructIPKcEEPcT_S3_RKSaIcESt20forward_iterator_tag
   fun:_ZNSsC1EPKcRKSaIcE
   fun:_GLOBAL__sub_I_AttributeConflateCmd.cpp
   fun:call_init.part.0
   fun:_dl_init
   obj:/lib/x86_64-linux-gnu/ld-2.15.so
   obj:*
   obj:*
   obj:*
}
{
   <insert_a_suppression_name_here>
   Memcheck:Leak
   fun:_Znwm
   fun:_ZNSs4_Rep9_S_createEmmRKSaIcE
   fun:_ZNSs12_S_constructIPKcEEPcT_S3_RKSaIcESt20forward_iterator_tag
   fun:_ZNSsC1EPKcRKSaIcE
   fun:_GLOBAL__sub_I_KeepBuildingsVisitor.cpp
   fun:call_init.part.0
   fun:_dl_init
   obj:/lib/x86_64-linux-gnu/ld-2.15.so
   obj:*
   obj:*
   obj:*
}
{
   <insert_a_suppression_name_here>
   Memcheck:Leak
   fun:_Znwm
   fun:_ZNSs4_Rep9_S_createEmmRKSaIcE
   fun:_ZNSs12_S_constructIPKcEEPcT_S3_RKSaIcESt20forward_iterator_tag
   fun:_ZNSsC1EPKcRKSaIcE
   fun:_GLOBAL__sub_I_DeriveRubberSheetCmd.cpp
   fun:call_init.part.0
   fun:_dl_init
   obj:/lib/x86_64-linux-gnu/ld-2.15.so
   obj:*
   obj:*
   obj:*
}
{
   <insert_a_suppression_name_here>
   Memcheck:Leak
   fun:_Znwm
   fun:_ZNSs4_Rep9_S_createEmmRKSaIcE
   fun:_ZNSs12_S_constructIPKcEEPcT_S3_RKSaIcESt20forward_iterator_tag
   fun:_ZNSsC1EPKcRKSaIcE
   fun:_GLOBAL__sub_I_CompactnessExtractor.cpp
   fun:call_init.part.0
   fun:_dl_init
   obj:/lib/x86_64-linux-gnu/ld-2.15.so
   obj:*
   obj:*
   obj:*
}
{
   <insert_a_suppression_name_here>
   Memcheck:Leak
   fun:_Znwm
   fun:_ZNSs4_Rep9_S_createEmmRKSaIcE
   fun:_ZNSs12_S_constructIPKcEEPcT_S3_RKSaIcESt20forward_iterator_tag
   fun:_ZNSsC1EPKcRKSaIcE
   fun:_GLOBAL__sub_I_BuildingMatchCreator.cpp
   fun:call_init.part.0
   fun:_dl_init
   obj:/lib/x86_64-linux-gnu/ld-2.15.so
   obj:*
   obj:*
   obj:*
}
{
   <insert_a_suppression_name_here>
   Memcheck:Leak
   fun:_Znwm
   fun:_ZNSs4_Rep9_S_createEmmRKSaIcE
   fun:_ZNSs12_S_constructIPKcEEPcT_S3_RKSaIcESt20forward_iterator_tag
   fun:_ZNSsC1EPKcRKSaIcE
   fun:_GLOBAL__sub_I_FindIntersectionsCmd.cpp
   fun:call_init.part.0
   fun:_dl_init
   obj:/lib/x86_64-linux-gnu/ld-2.15.so
   obj:*
   obj:*
   obj:*
}
{
   <insert_a_suppression_name_here>
   Memcheck:Leak
   fun:_Znwm
   fun:_ZNSs4_Rep9_S_createEmmRKSaIcE
   fun:_ZNSs12_S_constructIPKcEEPcT_S3_RKSaIcESt20forward_iterator_tag
   fun:_ZNSsC1EPKcRKSaIcE
   fun:_GLOBAL__sub_I_BuildingMergerCreator.cpp
   fun:call_init.part.0
   fun:_dl_init
   obj:/lib/x86_64-linux-gnu/ld-2.15.so
   obj:*
   obj:*
   obj:*
}
{
   <insert_a_suppression_name_here>
   Memcheck:Leak
   fun:_Znwm
   fun:_ZNSs4_Rep9_S_createEmmRKSaIcE
   fun:_ZNSs12_S_constructIPKcEEPcT_S3_RKSaIcESt20forward_iterator_tag
   fun:_ZNSsC1EPKcRKSaIcE
   fun:_GLOBAL__sub_I_EdgeDistanceExtractor.cpp
   fun:call_init.part.0
   fun:_dl_init
   obj:/lib/x86_64-linux-gnu/ld-2.15.so
   obj:*
   obj:*
   obj:*
}
{
   <insert_a_suppression_name_here>
   Memcheck:Leak
   fun:_Znwm
   fun:_ZNSs4_Rep9_S_createEmmRKSaIcE
   fun:_ZNSs12_S_constructIPKcEEPcT_S3_RKSaIcESt20forward_iterator_tag
   fun:_ZNSsC1EPKcRKSaIcE
   fun:_GLOBAL__sub_I_RemoveUnknown1Visitor.cpp
   fun:call_init.part.0
   fun:_dl_init
   obj:/lib/x86_64-linux-gnu/ld-2.15.so
   obj:*
   obj:*
   obj:*
}
{
   <insert_a_suppression_name_here>
   Memcheck:Leak
   fun:_Znwm
   fun:_ZNSs4_Rep9_S_createEmmRKSaIcE
   fun:_ZNSs12_S_constructIPKcEEPcT_S3_RKSaIcESt20forward_iterator_tag
   fun:_ZNSsC1EPKcRKSaIcE
   fun:_GLOBAL__sub_I_PlacesPoiMatchCreator.cpp
   fun:call_init.part.0
   fun:_dl_init
   obj:/lib/x86_64-linux-gnu/ld-2.15.so
   obj:*
   obj:*
   obj:*
}
{
   <insert_a_suppression_name_here>
   Memcheck:Leak
   fun:_Znwm
   fun:_ZNSs4_Rep9_S_createEmmRKSaIcE
   fun:_ZNSs12_S_constructIPKcEEPcT_S3_RKSaIcESt20forward_iterator_tag
   fun:_ZNSsC1EPKcRKSaIcE
   fun:_GLOBAL__sub_I_CustomPoiMatchCreator.cpp
   fun:call_init.part.0
   fun:_dl_init
   obj:/lib/x86_64-linux-gnu/ld-2.15.so
   obj:*
   obj:*
   obj:*
}
{
   <insert_a_suppression_name_here>
   Memcheck:Leak
   fun:_Znwm
   fun:_ZNSs4_Rep9_S_createEmmRKSaIcE
   fun:_ZNSs12_S_constructIPKcEEPcT_S3_RKSaIcESt20forward_iterator_tag
   fun:_ZNSsC1EPKcRKSaIcE
   fun:_GLOBAL__sub_I_PertyRemoveTagVisitor.cpp
   fun:call_init.part.0
   fun:_dl_init
   obj:/lib/x86_64-linux-gnu/ld-2.15.so
   obj:*
   obj:*
   obj:*
}
{
   <insert_a_suppression_name_here>
   Memcheck:Leak
   fun:_Znwm
   fun:_ZNSs4_Rep9_S_createEmmRKSaIcE
   fun:_ZNSs12_S_constructIPKcEEPcT_S3_RKSaIcESt20forward_iterator_tag
   fun:_ZNSsC1EPKcRKSaIcE
   fun:_GLOBAL__sub_I_SuperfluousNodeRemover.cpp
   fun:call_init.part.0
   fun:_dl_init
   obj:/lib/x86_64-linux-gnu/ld-2.15.so
   obj:*
   obj:*
   obj:*
}
{
   <insert_a_suppression_name_here>
   Memcheck:Leak
   fun:_Znwm
   fun:_ZNSs4_Rep9_S_createEmmRKSaIcE
   fun:_ZNSs12_S_constructIPKcEEPcT_S3_RKSaIcESt20forward_iterator_tag
   fun:_ZNSsC1EPKcRKSaIcE
   fun:_GLOBAL__sub_I_PlacesPoiMergerCreator.cpp
   fun:call_init.part.0
   fun:_dl_init
   obj:/lib/x86_64-linux-gnu/ld-2.15.so
   obj:*
   obj:*
   obj:*
}
{
   <insert_a_suppression_name_here>
   Memcheck:Leak
   fun:_Znwm
   fun:_ZNSs4_Rep9_S_createEmmRKSaIcE
   fun:_ZNSs12_S_constructIPKcEEPcT_S3_RKSaIcESt20forward_iterator_tag
   fun:_ZNSsC1EPKcRKSaIcE
   fun:_GLOBAL__sub_I_CustomPoiMergerCreator.cpp
   fun:call_init.part.0
   fun:_dl_init
   obj:/lib/x86_64-linux-gnu/ld-2.15.so
   obj:*
   obj:*
   obj:*
}
{
   <insert_a_suppression_name_here>
   Memcheck:Leak
   fun:_Znwm
   fun:_ZNSs4_Rep9_S_createEmmRKSaIcE
   fun:_ZNSs12_S_constructIPKcEEPcT_S3_RKSaIcESt20forward_iterator_tag
   fun:_ZNSsC1EPKcRKSaIcE
   fun:_GLOBAL__sub_I_ReprojectToGeographicOp.cpp
   fun:call_init.part.0
   fun:_dl_init
   obj:/lib/x86_64-linux-gnu/ld-2.15.so
   obj:*
   obj:*
   obj:*
}
{
   <insert_a_suppression_name_here>
   Memcheck:Leak
   fun:_Znwm
   fun:_ZNSs4_Rep9_S_createEmmRKSaIcE
   fun:_ZNSs12_S_constructIPKcEEPcT_S3_RKSaIcESt20forward_iterator_tag
   fun:_ZNSsC1EPKcRKSaIcE
   fun:_GLOBAL__sub_I_AngleHistogramExtractor.cpp
   fun:call_init.part.0
   fun:_dl_init
   obj:/lib/x86_64-linux-gnu/ld-2.15.so
   obj:*
   obj:*
   obj:*
}
{
   <insert_a_suppression_name_here>
   Memcheck:Leak
   fun:_Znwm
   fun:_ZNSs4_Rep9_S_createEmmRKSaIcE
   fun:_ZNSs12_S_constructIPKcEEPcT_S3_RKSaIcESt20forward_iterator_tag
   fun:_ZNSsC1EPKcRKSaIcE
   fun:_GLOBAL__sub_I_SmallerOverlapExtractor.cpp
   fun:call_init.part.0
   fun:_dl_init
   obj:/lib/x86_64-linux-gnu/ld-2.15.so
   obj:*
   obj:*
   obj:*
}
{
   <insert_a_suppression_name_here>
   Memcheck:Leak
   fun:_Znwm
   fun:_ZNSs4_Rep9_S_createEmmRKSaIcE
   fun:_ZNSs12_S_constructIPKcEEPcT_S3_RKSaIcESt20forward_iterator_tag
   fun:_ZNSsC1EPKcRKSaIcE
   fun:_GLOBAL__sub_I_BufferedOverlapExtractor.cpp
   fun:call_init.part.0
   fun:_dl_init
   obj:/lib/x86_64-linux-gnu/ld-2.15.so
   obj:*
   obj:*
   obj:*
}
{
   <insert_a_suppression_name_here>
   Memcheck:Leak
   fun:_Znwm
   fun:_ZNSs4_Rep9_S_createEmmRKSaIcE
   fun:_ZNSs12_S_constructIPKcEEPcT_S3_RKSaIcESt20forward_iterator_tag
   fun:_ZNSsC1EPKcRKSaIcE
   fun:_GLOBAL__sub_I_BuildingMergeManipulator.cpp
   fun:call_init.part.0
   fun:_dl_init
   obj:/lib/x86_64-linux-gnu/ld-2.15.so
   obj:*
   obj:*
   obj:*
}
{
   <insert_a_suppression_name_here>
   Memcheck:Leak
   fun:_Znwm
   fun:_ZNSs4_Rep9_S_createEmmRKSaIcE
   fun:_ZNSs12_S_constructIPKcEEPcT_S3_RKSaIcESt20forward_iterator_tag
   fun:_ZNSsC1EPKcRKSaIcE
   fun:_GLOBAL__sub_I_CentroidDistanceExtractor.cpp
   fun:call_init.part.0
   fun:_dl_init
   obj:/lib/x86_64-linux-gnu/ld-2.15.so
   obj:*
   obj:*
   obj:*
}
{
   <insert_a_suppression_name_here>
   Memcheck:Leak
   fun:_Znwm
   fun:_ZNSs4_Rep9_S_createEmmRKSaIcE
   fun:_ZNSs12_S_constructIPKcEEPcT_S3_RKSaIcESt20forward_iterator_tag
   fun:_ZNSsC1EPKcRKSaIcE
   fun:_ZN4hoot3Log5_initEv
   fun:_ZN4hoot3Log11getInstanceEv
   fun:main
}
{
   <insert_a_suppression_name_here>
   Memcheck:Leak
   fun:_Znwm
   fun:_ZNSs4_Rep9_S_createEmmRKSaIcE
   fun:_ZNSs4_Rep8_M_cloneERKSaIcEm
   fun:_ZNSs7reserveEm
   fun:_ZNSs6appendEmc
   fun:_ZN7log4cxx7pattern13PatternParser5parseERKSsRSt6vectorINS_7helpers10ObjectPtrTINS0_16PatternConverterEEESaIS8_EERS4_INS6_INS0_14FormattingInfoEEESaISD_EERKSt3mapISsPFS8_RKS4_ISsSaISsEEESt4lessISsESaISt4pairIS2_SN_EEE
   fun:_ZN7log4cxx13PatternLayout15activateOptionsERNS_7helpers4PoolE
   fun:_ZN7log4cxx13PatternLayoutC1ERKSs
   fun:_ZN4hoot3Log5_initEv
   fun:_ZN4hoot3Log11getInstanceEv
   fun:main
}
{
   <insert_a_suppression_name_here>
   Memcheck:Leak
   fun:_Znwm
   fun:_ZNSs4_Rep9_S_createEmmRKSaIcE
   fun:_ZNSs4_Rep8_M_cloneERKSaIcEm
   fun:_ZNSsC1ERKSs
   fun:_ZN6google8protobuf24SimpleDescriptorDatabase15DescriptorIndexISt4pairIPKviEE7AddFileERKNS0_19FileDescriptorProtoES6_
   fun:_ZN6google8protobuf25EncodedDescriptorDatabase3AddEPKvi
   fun:_ZN6google8protobuf14DescriptorPool24InternalAddGeneratedFileEPKvi
   fun:_ZN6google8protobuf55protobuf_AddDesc_google_2fprotobuf_2fdescriptor_2eprotoEv
   fun:call_init.part.0
   fun:_dl_init
   obj:/lib/x86_64-linux-gnu/ld-2.15.so
   obj:*
}
{
   <insert_a_suppression_name_here>
   Memcheck:Leak
   fun:_Znwm
   fun:_ZNSs4_Rep9_S_createEmmRKSaIcE
   fun:_ZNSs9_M_mutateEmmm
   fun:_ZNSs15_M_replace_safeEmmPKcm
   fun:_Z13octave_getcwdv
   fun:_ZNK10octave_env9do_getcwdEv
   fun:_ZN10octave_envC1Ev
   fun:_ZN10octave_env11instance_okEv
   fun:_ZN10octave_env13get_host_nameEv
   obj:/usr/lib/x86_64-linux-gnu/liboctinterp.so.1.0.1
   fun:call_init.part.0
   fun:_dl_init
}
{
   <insert_a_suppression_name_here>
   Memcheck:Leak
   fun:_Znwm
   fun:_ZNSs4_Rep9_S_createEmmRKSaIcE
   fun:_ZNSs12_S_constructIPKcEEPcT_S3_RKSaIcESt20forward_iterator_tag
   fun:_ZNSsC1EPKcRKSaIcE
   fun:_GLOBAL__sub_I_HausdorffDistanceExtractor.cpp
   fun:call_init.part.0
   fun:_dl_init
   obj:/lib/x86_64-linux-gnu/ld-2.15.so
   obj:*
   obj:*
   obj:*
}
{
   <insert_a_suppression_name_here>
   Memcheck:Leak
   fun:_Znwm
   fun:_ZNSs4_Rep9_S_createEmmRKSaIcE
   fun:_ZNSs12_S_constructIPKcEEPcT_S3_RKSaIcESt20forward_iterator_tag
   fun:_ZNSsC1EPKcRKSaIcE
   fun:_GLOBAL__sub_I_RemoveRandomElementVisitor.cpp
   fun:call_init.part.0
   fun:_dl_init
   obj:/lib/x86_64-linux-gnu/ld-2.15.so
   obj:*
   obj:*
   obj:*
}
{
   <insert_a_suppression_name_here>
   Memcheck:Leak
   fun:_Znwm
   fun:_ZNSs4_Rep9_S_createEmmRKSaIcE
   fun:_ZNSs12_S_constructIPKcEEPcT_S3_RKSaIcESt20forward_iterator_tag
   fun:_ZNSsC1EPKcRKSaIcE
   fun:_GLOBAL__sub_I_RubberSheet.cpp
   fun:call_init.part.0
   fun:_dl_init
   obj:/lib/x86_64-linux-gnu/ld-2.15.so
   obj:*
   obj:*
   obj:*
}
{
   <insert_a_suppression_name_here>
   Memcheck:Leak
   fun:_Znwm
   fun:_ZNSs4_Rep9_S_createEmmRKSaIcE
   fun:_ZNSs12_S_constructIPKcEEPcT_S3_RKSaIcESt20forward_iterator_tag
   fun:_ZNSsC1EPKcRKSaIcE
   fun:_GLOBAL__sub_I_ReportMissingElementsVisitor.cpp
   fun:call_init.part.0
   fun:_dl_init
   obj:/lib/x86_64-linux-gnu/ld-2.15.so
   obj:*
   obj:*
   obj:*
}
{
   <insert_a_suppression_name_here>
   Memcheck:Leak
   fun:_Znwm
   fun:_ZNSs4_Rep9_S_createEmmRKSaIcE
   fun:_ZNSs12_S_constructEmcRKSaIcE
   fun:_ZN7log4cxx7pattern16CachedDateFormatC1ERKNS_7helpers10ObjectPtrTINS2_10DateFormatEEEi
   fun:_ZN7log4cxx7pattern20DatePatternConverter13getDateFormatERKSt6vectorISsSaISsEE
   fun:_ZN7log4cxx7pattern20DatePatternConverterC1ERKSt6vectorISsSaISsEE
   fun:_ZN7log4cxx7pattern20DatePatternConverter11newInstanceERKSt6vectorISsSaISsEE
   fun:_ZN7log4cxx7pattern13PatternParser15createConverterERKSsRSsRKSt3mapISsPFNS_7helpers10ObjectPtrTINS0_16PatternConverterEEERKSt6vectorISsSaISsEEESt4lessISsESaISt4pairIS2_SG_EEERSC_
   fun:_ZN7log4cxx7pattern13PatternParser17finalizeConverterEcRKSsiRSsRKNS_7helpers10ObjectPtrTINS0_14FormattingInfoEEERKSt3mapISsPFNS6_INS0_16PatternConverterEEERKSt6vectorISsSaISsEEESt4lessISsESaISt4pairIS2_SK_EEERSE_ISD_SaISD_EERSE_IS8_SaIS8_EE
   fun:_ZN7log4cxx7pattern13PatternParser5parseERKSsRSt6vectorINS_7helpers10ObjectPtrTINS0_16PatternConverterEEESaIS8_EERS4_INS6_INS0_14FormattingInfoEEESaISD_EERKSt3mapISsPFS8_RKS4_ISsSaISsEEESt4lessISsESaISt4pairIS2_SN_EEE
   fun:_ZN7log4cxx13PatternLayout15activateOptionsERNS_7helpers4PoolE
   fun:_ZN7log4cxx13PatternLayoutC1ERKSs
}
{
   <insert_a_suppression_name_here>
   Memcheck:Leak
   fun:_Znwm
   fun:_ZNSs4_Rep9_S_createEmmRKSaIcE
   fun:_ZNSs4_Rep8_M_cloneERKSaIcEm
   fun:_ZNSs7reserveEm
   fun:_ZNSs6appendERKSs
   fun:_ZStplIcSt11char_traitsIcESaIcEESbIT_T0_T1_ERKS6_S8_
   fun:_ZN6google8protobuf24SimpleDescriptorDatabase15DescriptorIndexISt4pairIPKviEE7AddFileERKNS0_19FileDescriptorProtoES6_
   fun:_ZN6google8protobuf25EncodedDescriptorDatabase3AddEPKvi
   fun:_ZN6google8protobuf14DescriptorPool24InternalAddGeneratedFileEPKvi
   fun:_ZN4hoot2pb35protobuf_AddDesc_FileFormat_2eprotoEv
   fun:call_init.part.0
   fun:_dl_init
}
{
   <insert_a_suppression_name_here>
   Memcheck:Leak
   fun:_Znam
   fun:_ZN20octave_sparse_params11instance_okEv
   fun:_ZN20octave_sparse_params11get_banddenEv
   fun:_ZN10MatrixTypeC1Ev
   fun:_ZN12octave_valueC1EPKcc
   fun:_ZN15base_properties16factory_defaultsEv
   fun:_ZN6figure10properties16factory_defaultsEv
   fun:_ZN11root_figure23init_factory_propertiesEv
   obj:/usr/lib/x86_64-linux-gnu/liboctinterp.so.1.0.1
   fun:call_init.part.0
   fun:_dl_init
   obj:/lib/x86_64-linux-gnu/ld-2.15.so
}
{
   <insert_a_suppression_name_here>
   Memcheck:Leak
   fun:_Znwm
   obj:/usr/lib/x86_64-linux-gnu/libQtCore.so.4.8.1
   fun:_ZN8QLibrary11setFileNameERK7QString
   fun:_ZN8QLibraryC1ERK7QStringP7QObject
   fun:main
}
{
   <insert_a_suppression_name_here>
   Memcheck:Leak
   fun:_Znwm
   obj:/usr/lib/x86_64-linux-gnu/libQtCore.so.4.8.1
   fun:_ZN8QLibrary21setFileNameAndVersionERK7QStringS2_
   fun:_ZN8QLibraryC1ERK7QStringS2_P7QObject
   obj:/usr/lib/x86_64-linux-gnu/libQtCore.so.4.8.1
   fun:_ZN14QLocalePrivate19updateSystemPrivateEv
   obj:/usr/lib/x86_64-linux-gnu/libQtCore.so.4.8.1
   obj:/usr/lib/x86_64-linux-gnu/libQtCore.so.4.8.1
   fun:_ZN7QLocaleC1Ev
   obj:/usr/lib/x86_64-linux-gnu/libQtCore.so.4.8.1
   obj:/usr/lib/x86_64-linux-gnu/libQtCore.so.4.8.1
   obj:/usr/lib/x86_64-linux-gnu/libQtCore.so.4.8.1
}
{
   <insert_a_suppression_name_here>
   Memcheck:Leak
   fun:_Znwm
   obj:/usr/lib/x86_64-linux-gnu/libQtCore.so.4.8.1
   fun:_ZN8QLibrary21setFileNameAndVersionERK7QStringS2_
   fun:_ZN8QLibraryC1ERK7QStringS2_P7QObject
   obj:/usr/lib/x86_64-linux-gnu/libQtCore.so.4.8.1
   fun:_ZN14QLocalePrivate19updateSystemPrivateEv
   obj:/usr/lib/x86_64-linux-gnu/libQtCore.so.4.8.1
   obj:/usr/lib/x86_64-linux-gnu/libQtCore.so.4.8.1
   fun:_ZN7QLocaleC1Ev
   obj:/usr/lib/x86_64-linux-gnu/libQtCore.so.4.8.1
   obj:/usr/lib/x86_64-linux-gnu/libQtCore.so.4.8.1
   obj:/usr/lib/x86_64-linux-gnu/libQtCore.so.4.8.1
}
{
   <insert_a_suppression_name_here>
   Memcheck:Leak
   fun:malloc
   fun:nss_parse_service_list
   fun:__nss_database_lookup
   obj:*
   fun:getpwuid_r@@GLIBC_2.2.5
   fun:getpwuid
   fun:_ZN13octave_passwd8getpwuidEjRSs
   fun:_ZN13octave_passwd8getpwuidEj
   fun:_ZNK10octave_env16do_get_user_nameEv
   fun:_ZN10octave_envC1Ev
   fun:_ZN10octave_env11instance_okEv
   fun:_ZN10octave_env13get_host_nameEv
}
{
   <insert_a_suppression_name_here>
   Memcheck:Leak
   fun:_Znwm
   fun:_ZNSs4_Rep9_S_createEmmRKSaIcE
   fun:_ZNSs4_Rep8_M_cloneERKSaIcEm
   fun:_ZNSs7reserveEm
   fun:_ZNSs6appendERKSs
   fun:_ZStplIcSt11char_traitsIcESaIcEESbIT_T0_T1_ERKS6_S8_
   fun:_ZN6google8protobuf24SimpleDescriptorDatabase15DescriptorIndexISt4pairIPKviEE7AddFileERKNS0_19FileDescriptorProtoES6_
   fun:_ZN6google8protobuf25EncodedDescriptorDatabase3AddEPKvi
   fun:_ZN6google8protobuf14DescriptorPool24InternalAddGeneratedFileEPKvi
   fun:_ZN4hoot2pb34protobuf_AddDesc_OsmFormat_2eprotoEv
   fun:call_init.part.0
   fun:_dl_init
}
{
   <insert_a_suppression_name_here>
   Memcheck:Leak
   fun:_Znwm
   fun:_ZNSs4_Rep9_S_createEmmRKSaIcE
   fun:_ZNSs4_Rep8_M_cloneERKSaIcEm
   fun:_ZNSs7reserveEm
   fun:_ZNSs6appendERKSs
   fun:_ZStplIcSt11char_traitsIcESaIcEESbIT_T0_T1_ERKS6_S8_
   fun:_ZN6google8protobuf24SimpleDescriptorDatabase15DescriptorIndexISt4pairIPKviEE7AddFileERKNS0_19FileDescriptorProtoES6_
   fun:_ZN6google8protobuf25EncodedDescriptorDatabase3AddEPKvi
   fun:_ZN6google8protobuf14DescriptorPool24InternalAddGeneratedFileEPKvi
   fun:_ZN6google8protobuf55protobuf_AddDesc_google_2fprotobuf_2fdescriptor_2eprotoEv
   fun:call_init.part.0
   fun:_dl_init
}
{
   <insert_a_suppression_name_here>
   Memcheck:Leak
   fun:memalign
   fun:posix_memalign
   obj:/lib/x86_64-linux-gnu/libglib-2.0.so.0.3200.4
   fun:g_slice_alloc
   fun:g_slice_alloc0
   fun:g_thread_self
   fun:g_main_context_acquire
   fun:g_main_context_push_thread_default
   fun:_ZN27QEventDispatcherGlibPrivateC1EP13_GMainContext
   fun:_ZN20QEventDispatcherGlibC1EP7QObject
   fun:_ZN23QCoreApplicationPrivate21createEventDispatcherEv
   fun:_ZN16QCoreApplication4initEv
}
